	.file	"tommy.c"
# GNU C (GCC) version 4.9.0 (x86_64-unknown-linux-gnu)
#	compiled by GNU C version 4.9.0, GMP version 6.0.0, MPFR version 3.1.2-p5, MPC version 1.0.2
# GGC heuristics: --param ggc-min-expand=100 --param ggc-min-heapsize=131072
# options passed:  -imultilib . tommy.c -m32 -march=pentium4 -mtune=generic
# -auxbase-strip tommy.s -g -O3 -Wall -Wextra -fverbose-asm
# options enabled:  -faggressive-loop-optimizations
# -fasynchronous-unwind-tables -fauto-inc-dec -fbranch-count-reg
# -fcaller-saves -fcombine-stack-adjustments -fcommon -fcompare-elim
# -fcprop-registers -fcrossjumping -fcse-follow-jumps -fdefer-pop
# -fdelete-null-pointer-checks -fdevirtualize -fdevirtualize-speculatively
# -fdwarf2-cfi-asm -fearly-inlining -feliminate-unused-debug-types
# -fexpensive-optimizations -fforward-propagate -ffunction-cse -fgcse
# -fgcse-after-reload -fgcse-lm -fgnu-runtime -fgnu-unique
# -fguess-branch-probability -fhoist-adjacent-loads -fident -fif-conversion
# -fif-conversion2 -findirect-inlining -finline -finline-atomics
# -finline-functions -finline-functions-called-once
# -finline-small-functions -fipa-cp -fipa-cp-clone -fipa-profile
# -fipa-pure-const -fipa-reference -fipa-sra -fira-hoist-pressure
# -fira-share-save-slots -fira-share-spill-slots
# -fisolate-erroneous-paths-dereference -fivopts -fkeep-static-consts
# -fleading-underscore -fmath-errno -fmerge-constants -fmerge-debug-strings
# -fmove-loop-invariants -fomit-frame-pointer -foptimize-sibling-calls
# -foptimize-strlen -fpartial-inlining -fpcc-struct-return -fpeephole
# -fpeephole2 -fpredictive-commoning -fprefetch-loop-arrays -free
# -freorder-blocks -freorder-blocks-and-partition -freorder-functions
# -frerun-cse-after-loop -fsched-critical-path-heuristic
# -fsched-dep-count-heuristic -fsched-group-heuristic -fsched-interblock
# -fsched-last-insn-heuristic -fsched-rank-heuristic -fsched-spec
# -fsched-spec-insn-heuristic -fsched-stalled-insns-dep -fschedule-insns2
# -fshow-column -fshrink-wrap -fsigned-zeros -fsplit-ivs-in-unroller
# -fsplit-wide-types -fstrict-aliasing -fstrict-overflow
# -fstrict-volatile-bitfields -fsync-libcalls -fthread-jumps
# -ftoplevel-reorder -ftrapping-math -ftree-bit-ccp -ftree-builtin-call-dce
# -ftree-ccp -ftree-ch -ftree-coalesce-vars -ftree-copy-prop
# -ftree-copyrename -ftree-cselim -ftree-dce -ftree-dominator-opts
# -ftree-dse -ftree-forwprop -ftree-fre -ftree-loop-distribute-patterns
# -ftree-loop-if-convert -ftree-loop-im -ftree-loop-ivcanon
# -ftree-loop-optimize -ftree-loop-vectorize -ftree-parallelize-loops=
# -ftree-partial-pre -ftree-phiprop -ftree-pre -ftree-pta -ftree-reassoc
# -ftree-scev-cprop -ftree-sink -ftree-slp-vectorize -ftree-slsr -ftree-sra
# -ftree-switch-conversion -ftree-tail-merge -ftree-ter -ftree-vrp
# -funit-at-a-time -funswitch-loops -funwind-tables -fvar-tracking
# -fvar-tracking-assignments -fverbose-asm -fzero-initialized-in-bss -m32
# -m80387 -m96bit-long-double -malign-stringops
# -mavx256-split-unaligned-load -mavx256-split-unaligned-store
# -mfancy-math-387 -mfp-ret-in-387 -mfxsr -mglibc -mieee-fp
# -mlong-double-80 -mmmx -mno-red-zone -mno-sse4 -mpush-args -msahf -msse
# -msse2 -mtls-direct-seg-refs -mvzeroupper

	.text
.Ltext0:
	.section	.text.unlikely,"ax",@progbits
.LCOLDB0:
	.text
.LHOTB0:
	.p2align 4,,15
	.section	.text.unlikely
.Ltext_cold0:
	.text
	.type	tommy_hashdyn_resize, @function
tommy_hashdyn_resize:
.LFB124:
	.file 1 "tommyhashdyn.c"
	.loc 1 57 0
	.cfi_startproc
.LVL0:
	pushl	%ebp	#
	.cfi_def_cfa_offset 8
	.cfi_offset 5, -8
	pushl	%edi	#
	.cfi_def_cfa_offset 12
	.cfi_offset 7, -12
	.loc 1 67 0
	movl	%edx, %ecx	# new_bucket_bit, tmp136
	.loc 1 57 0
	pushl	%esi	#
	.cfi_def_cfa_offset 16
	.cfi_offset 6, -16
	pushl	%ebx	#
	.cfi_def_cfa_offset 20
	.cfi_offset 3, -20
	subl	$56, %esp	#,
	.cfi_def_cfa_offset 76
	.loc 1 64 0
	movl	4(%eax), %edi	# hashdyn_10(D)->bucket_bit, bucket_bit
.LVL1:
	.loc 1 57 0
	movl	%eax, 28(%esp)	# hashdyn, %sfp
	.loc 1 65 0
	movl	8(%eax), %eax	# hashdyn_10(D)->bucket_max, bucket_max
.LVL2:
	.loc 1 67 0
	movl	%edx, 40(%esp)	# new_bucket_bit, %sfp
	.loc 1 65 0
	movl	%eax, 32(%esp)	# bucket_max, %sfp
.LVL3:
	.loc 1 67 0
	movl	$1, %eax	#, tmp114
.LVL4:
	sall	%cl, %eax	# tmp136, new_bucket_max
	.loc 1 69 0
	leal	0(,%eax,4), %ebp	#, D.5429
	.loc 1 67 0
	movl	%eax, 24(%esp)	# new_bucket_max, %sfp
.LVL5:
	.loc 1 68 0
	leal	-1(%eax), %esi	#, new_bucket_mask
.LVL6:
	.loc 1 69 0
	pushl	%ebp	# D.5429
	.cfi_def_cfa_offset 80
.LVL7:
	call	malloc	#
.LVL8:
	.loc 1 72 0
	addl	$16, %esp	#,
	.cfi_def_cfa_offset 64
	.loc 1 69 0
	movl	%eax, %ebx	#, new_bucket
.LVL9:
	.loc 1 72 0
	cmpl	28(%esp), %edi	# %sfp, bucket_bit
	jb	.L2	#,
.LVL10:
.LBB256:
	.loc 1 99 0 discriminator 1
	movl	12(%esp), %eax	# %sfp,
.LVL11:
	testl	%eax, %eax	#
	je	.L5	#,
	movl	16(%esp), %eax	# %sfp, hashdyn
	.loc 1 99 0 is_stmt 0
	movl	%esi, 24(%esp)	# new_bucket_mask, %sfp
	movl	(%eax), %edi	# hashdyn_10(D)->bucket, D.5430
.LVL12:
	leal	(%edi,%ebp), %eax	#, D.5430
	movl	%eax, %ebp	# D.5430, D.5430
	xorl	%eax, %eax	# i
	movl	%ebp, 20(%esp)	# D.5430, %sfp
.LVL13:
	jmp	.L13	#
.LVL14:
	.p2align 4,,10
	.p2align 3
.L12:
.LBB257:
.LBB258:
.LBB259:
.LBB260:
	.file 2 "tommylist.h"
	.loc 2 144 0 is_stmt 1
	movl	4(%edx), %esi	# MEM[(struct tommy_node *)_44].prev, D.5434
.LBE260:
.LBE259:
	.file 3 "tommylist.c"
	.loc 3 51 0
	movl	4(%ecx), %ebp	# _37->prev, tmp153
	movl	%ebp, 4(%edx)	# tmp153, MEM[(struct tommy_node *)_44].prev
	.loc 3 52 0
	movl	%esi, 4(%ecx)	# D.5434, _37->prev
	.loc 3 55 0
	movl	%ecx, (%esi)	# D.5432, _60->next
.L11:
.LBE258:
.LBE257:
	.loc 1 99 0 discriminator 3
	addl	$1, %eax	#, i
.LVL15:
	cmpl	%eax, 12(%esp)	# i, %sfp
	je	.L28	#,
.LVL16:
.L13:
	.loc 1 101 0 discriminator 3
	movl	(%edi,%eax,4), %edx	# MEM[base: _107, index: i_79, step: 4, offset: 0B], D.5431
	movl	20(%esp), %esi	# %sfp, D.5430
	movl	%edx, (%ebx,%eax,4)	# D.5431, MEM[base: new_bucket_20, index: i_79, step: 4, offset: 0B]
.LVL17:
	movl	(%esi,%eax,4), %ecx	# MEM[base: _25, index: i_79, step: 4, offset: 0B], D.5432
.LBB262:
.LBB261:
	.loc 3 37 0 discriminator 3
	testl	%ecx, %ecx	# D.5432
	je	.L11	#,
	.loc 3 41 0
	testl	%edx, %edx	# D.5431
	jne	.L12	#,
	.loc 3 42 0
	movl	%ecx, (%ebx,%eax,4)	# D.5432, MEM[base: new_bucket_20, index: i_79, step: 4, offset: 0B]
.LBE261:
.LBE262:
	.loc 1 99 0
	addl	$1, %eax	#, i
.LVL18:
	cmpl	%eax, 12(%esp)	# i, %sfp
	jne	.L13	#,
.LVL19:
.L28:
	movl	24(%esp), %esi	# %sfp, new_bucket_mask
.LVL20:
.L4:
.LBE256:
	.loc 1 108 0
	subl	$12, %esp	#,
	.cfi_def_cfa_offset 76
	pushl	%edi	# D.5430
	.cfi_def_cfa_offset 80
	call	free	#
.LVL21:
	.loc 1 111 0
	movl	32(%esp), %eax	# %sfp, hashdyn
	movl	44(%esp), %edi	# %sfp, new_bucket_bit
	movl	%edi, 4(%eax)	# new_bucket_bit, hashdyn_10(D)->bucket_bit
	.loc 1 112 0
	movl	28(%esp), %edi	# %sfp, new_bucket_max
	.loc 1 113 0
	movl	%esi, 12(%eax)	# new_bucket_mask, hashdyn_10(D)->bucket_mask
	.loc 1 114 0
	movl	%ebx, (%eax)	# new_bucket, hashdyn_10(D)->bucket
	.loc 1 112 0
	movl	%edi, 8(%eax)	# new_bucket_max, hashdyn_10(D)->bucket_max
	.loc 1 115 0
	addl	$60, %esp	#,
	.cfi_def_cfa_offset 20
	popl	%ebx	#
	.cfi_restore 3
	.cfi_def_cfa_offset 16
.LVL22:
	popl	%esi	#
	.cfi_restore 6
	.cfi_def_cfa_offset 12
	popl	%edi	#
	.cfi_restore 7
	.cfi_def_cfa_offset 8
	popl	%ebp	#
	.cfi_restore 5
	.cfi_def_cfa_offset 4
	ret
.LVL23:
.L2:
	.cfi_def_cfa_offset 64
	.cfi_offset 3, -20
	.cfi_offset 5, -8
	.cfi_offset 6, -16
	.cfi_offset 7, -12
.LBB263:
	.loc 1 76 0 discriminator 1
	movl	20(%esp), %eax	# %sfp, bucket_max
.LVL24:
	testl	%eax, %eax	# bucket_max
	je	.L5	#,
	movl	16(%esp), %edi	# %sfp, hashdyn
.LVL25:
	sall	$2, %eax	#, D.5435
	.loc 1 76 0 is_stmt 0
	xorl	%ebp, %ebp	# ivtmp.132
	movl	%eax, 24(%esp)	# D.5435, %sfp
	addl	%ebx, %eax	# new_bucket, D.5430
	movl	%eax, 20(%esp)	# D.5430, %sfp
.LVL26:
	movl	(%edi), %edi	# hashdyn_10(D)->bucket, D.5430
.LVL27:
	.p2align 4,,10
	.p2align 3
.L10:
.LBB264:
	.loc 1 81 0 is_stmt 1
	movl	20(%esp), %eax	# %sfp, D.5430
	.loc 1 80 0
	movl	$0, (%ebx,%ebp)	#, MEM[base: new_bucket_20, index: ivtmp.132_105, offset: 0B]
	.loc 1 81 0
	movl	$0, (%eax,%ebp)	#, MEM[base: _41, index: ivtmp.132_105, offset: 0B]
	.loc 1 84 0
	movl	(%edi,%ebp), %eax	# *_29, j
.LVL28:
	.loc 1 85 0
	testl	%eax, %eax	# j
	jne	.L9	#,
	jmp	.L6	#
.LVL29:
	.p2align 4,,10
	.p2align 3
.L30:
.LBB265:
.LBB266:
.LBB267:
	.loc 2 192 0
	movl	4(%edx), %ecx	# MEM[(struct tommy_node_struct * *)_36 + 4B], D.5433
.LBE267:
.LBE266:
.LBE265:
	.loc 1 85 0
	testl	%edi, %edi	# j
.LBB272:
.LBB269:
.LBB268:
	.loc 2 192 0
	movl	%ecx, 4(%eax)	# D.5433, MEM[(struct tommy_node *)j_80].prev
	.loc 2 193 0
	movl	%eax, 4(%edx)	# j, MEM[(struct tommy_node_struct * *)_36 + 4B]
	.loc 2 197 0
	movl	4(%eax), %edx	# MEM[(struct tommy_node *)j_80].prev, MEM[(struct tommy_node *)j_80].prev
.LVL30:
	.loc 2 196 0
	movl	$0, (%eax)	#, MEM[(struct tommy_node *)j_80].next
	.loc 2 197 0
	movl	%eax, (%edx)	# j, _59->next
.LVL31:
	movl	%edi, %eax	# j, j
.LVL32:
.LBE268:
.LBE269:
.LBE272:
	.loc 1 85 0
	je	.L29	#,
.LVL33:
.L9:
.LBB273:
	.loc 1 87 0
	movl	12(%eax), %edx	# j_80->key, index
	.loc 1 86 0
	movl	(%eax), %edi	# j_80->next, j
.LVL34:
	.loc 1 87 0
	andl	%esi, %edx	# new_bucket_mask, index
.LVL35:
	.loc 1 88 0
	leal	(%ebx,%edx,4), %ecx	#, D.5430
	movl	(%ecx), %edx	# *_35, D.5431
.LVL36:
	testl	%edx, %edx	# D.5431
	jne	.L30	#,
.LVL37:
.LBE273:
	.loc 1 85 0
	testl	%edi, %edi	# j
.LBB274:
.LBB270:
.LBB271:
	.loc 2 155 0
	movl	%eax, 4(%eax)	# j, MEM[(struct tommy_node *)j_80].prev
	.loc 2 158 0
	movl	$0, (%eax)	#, MEM[(struct tommy_node *)j_80].next
	.loc 2 160 0
	movl	%eax, (%ecx)	# j, MEM[(struct tommy_node * *)_35]
.LVL38:
	movl	%edi, %eax	# j, j
.LVL39:
.LBE271:
.LBE270:
.LBE274:
	.loc 1 85 0
	jne	.L9	#,
.LVL40:
	.p2align 4,,10
	.p2align 3
.L29:
	movl	16(%esp), %eax	# %sfp, hashdyn
	movl	(%eax), %edi	# hashdyn_10(D)->bucket, D.5430
.LVL41:
.L6:
	addl	$4, %ebp	#, ivtmp.132
.LBE264:
	.loc 1 76 0 discriminator 2
	cmpl	24(%esp), %ebp	# %sfp, ivtmp.132
	jne	.L10	#,
	jmp	.L4	#
.LVL42:
.L5:
	movl	16(%esp), %eax	# %sfp, hashdyn
	movl	(%eax), %edi	# hashdyn_10(D)->bucket, D.5430
.LVL43:
	jmp	.L4	#
.LBE263:
	.cfi_endproc
.LFE124:
	.size	tommy_hashdyn_resize, .-tommy_hashdyn_resize
	.section	.text.unlikely
.LCOLDE0:
	.text
.LHOTE0:
	.section	.rodata.str1.1,"aMS",@progbits,1
.LC1:
	.string	"tommyarray.h"
.LC2:
	.string	"pos < array->size"
	.section	.text.unlikely
.LCOLDB3:
.LHOTB3:
	.type	tommy_array_ref.part.11, @function
tommy_array_ref.part.11:
.LFB155:
	.file 4 "tommyarray.h"
	.loc 4 93 0
	.cfi_startproc
.LVL44:
	subl	$12, %esp	#,
	.cfi_def_cfa_offset 16
	.loc 4 97 0
	pushl	$__PRETTY_FUNCTION__.2532	#
	.cfi_def_cfa_offset 20
	pushl	$97	#
	.cfi_def_cfa_offset 24
	pushl	$.LC1	#
	.cfi_def_cfa_offset 28
	pushl	$.LC2	#
	.cfi_def_cfa_offset 32
	call	__assert_fail	#
.LVL45:
	.cfi_endproc
.LFE155:
	.size	tommy_array_ref.part.11, .-tommy_array_ref.part.11
.LCOLDE3:
.LHOTE3:
.LCOLDB4:
	.text
.LHOTB4:
	.p2align 4,,15
	.type	tommy_chain_mergesort, @function
tommy_chain_mergesort:
.LFB83:
	.file 5 "tommychain.h"
	.loc 5 157 0
	.cfi_startproc
.LVL46:
	pushl	%ebp	#
	.cfi_def_cfa_offset 8
	.cfi_offset 5, -8
	pushl	%edi	#
	.cfi_def_cfa_offset 12
	.cfi_offset 7, -12
	movl	%edx, %ebp	# cmp, cmp
	pushl	%esi	#
	.cfi_def_cfa_offset 16
	.cfi_offset 6, -16
	pushl	%ebx	#
	.cfi_def_cfa_offset 20
	.cfi_offset 3, -20
	subl	$332, %esp	#,
	.cfi_def_cfa_offset 352
	.loc 5 171 0
	movl	(%eax), %ecx	# chain_13(D)->head, node
.LVL47:
	.loc 5 157 0
	movl	%eax, 44(%esp)	# chain, %sfp
	.loc 5 172 0
	movl	4(%eax), %eax	# chain_13(D)->tail, tail
.LVL48:
	.loc 5 176 0
	movl	$0, 32(%esp)	#, %sfp
.LBB316:
	.loc 5 188 0
	movl	$0, 24(%esp)	#, %sfp
	.loc 5 183 0
	movl	%ecx, 312(%esp)	# node, bit[32].head
	.loc 5 184 0
	movl	%ecx, 316(%esp)	# node, bit[32].tail
.LBE316:
	.loc 5 172 0
	movl	%eax, 40(%esp)	# tail, %sfp
.LVL49:
.LBB347:
	.loc 5 185 0
	movl	(%ecx), %eax	# node_14->next, node
.LVL50:
	movl	%eax, 28(%esp)	# node, %sfp
.LVL51:
	.loc 5 182 0
	leal	312(%esp), %eax	#, tmp184
.LVL52:
	movl	%eax, 20(%esp)	# tmp184, %sfp
.LVL53:
	.p2align 4,,10
	.p2align 3
.L34:
	.loc 5 201 0
	addl	$1, 32(%esp)	#, %sfp
.LVL54:
	.loc 5 203 0
	cmpl	40(%esp), %ecx	# %sfp, node
	.loc 5 198 0
	movl	4(%eax), %edx	# *last_86, *last_86
	movl	24(%esp), %ebx	# %sfp, i
	movl	(%eax), %eax	# *last_86, *last_86
	movl	%edx, 60(%esp,%ebx,8)	# *last_86, bit
	movl	%eax, 56(%esp,%ebx,8)	# *last_86, bit
	.loc 5 203 0
	je	.L71	#,
.LVL55:
	.loc 5 183 0
	movl	28(%esp), %eax	# %sfp, node
	.loc 5 185 0
	movl	(%eax), %edx	# node_166->next, node
	.loc 5 183 0
	movl	%eax, 312(%esp)	# node, bit[32].head
	.loc 5 184 0
	movl	%eax, 316(%esp)	# node, bit[32].tail
	.loc 5 185 0
	movl	%edx, 36(%esp)	# node, %sfp
.LVL56:
	.loc 5 190 0
	movl	32(%esp), %edx	# %sfp, mask
.LVL57:
	testb	$1, %dl	#, mask
	je	.L59	#,
	movl	%eax, 16(%esp)	# node, %sfp
	movl	%eax, %edi	# node, D.5515
	leal	312(%esp), %eax	#, tmp192
.LVL58:
	leal	56(%esp), %ebx	#, ivtmp.158
	movl	%edx, 12(%esp)	# mask, %sfp
	movl	$0, 24(%esp)	#, %sfp
	movl	%eax, 8(%esp)	# tmp192, %sfp
.LVL59:
	.p2align 4,,10
	.p2align 3
.L45:
.LBB317:
.LBB318:
	.loc 5 122 0
	movl	4(%ebx), %esi	# MEM[base: last_20, offset: 4B], D.5515
.LBE318:
.LBE317:
	.loc 5 191 0
	movl	%ebx, 20(%esp)	# ivtmp.158, %sfp
.LVL60:
.LBB345:
.LBB343:
	.loc 5 122 0
	subl	$8, %esp	#,
	.cfi_def_cfa_offset 360
	pushl	8(%edi)	# _160->data
	.cfi_def_cfa_offset 364
	pushl	8(%esi)	# _43->data
	.cfi_def_cfa_offset 368
	call	*%ebp	# cmp
.LVL61:
	addl	$16, %esp	#,
	.cfi_def_cfa_offset 352
	testl	%eax, %eax	# D.5520
	jle	.L72	#,
	.loc 5 130 0
	movl	(%ebx), %esi	# MEM[base: last_20, offset: 0B], first_i
	subl	$8, %esp	#,
	.cfi_def_cfa_offset 360
	pushl	8(%esi)	# first_i_49->data
	.cfi_def_cfa_offset 364
	movl	28(%esp), %eax	# %sfp, D.5515
	pushl	8(%eax)	# _164->data
	.cfi_def_cfa_offset 368
	call	*%ebp	# cmp
.LVL62:
	addl	$16, %esp	#,
	.cfi_def_cfa_offset 352
	testl	%eax, %eax	# D.5520
	js	.L73	#,
.LVL63:
.LBB319:
.LBB320:
	.loc 5 89 0
	movl	8(%esp), %eax	# %sfp, last
	movl	(%eax), %edi	# last_172->head, second_i
.LVL64:
	.p2align 4,,10
	.p2align 3
.L39:
	.loc 5 93 0
	subl	$8, %esp	#,
	.cfi_def_cfa_offset 360
	pushl	8(%edi)	# second_i_58->data
	.cfi_def_cfa_offset 364
	pushl	8(%esi)	# first_i_60->data
	.cfi_def_cfa_offset 368
	call	*%ebp	# cmp
.LVL65:
	addl	$16, %esp	#,
	.cfi_def_cfa_offset 352
	testl	%eax, %eax	# D.5520
	jle	.L40	#,
.LBB321:
	.loc 5 95 0
	cmpl	(%ebx), %esi	# MEM[base: last_20, offset: 0B], first_i
	.loc 5 94 0
	movl	(%edi), %eax	# second_i_58->next, second_i
.LVL66:
	.loc 5 95 0
	je	.L74	#,
	.loc 5 99 0
	movl	4(%esi), %ecx	# first_i_60->prev, D.5521
.LVL67:
.LBB322:
.LBB323:
	.loc 5 63 0
	movl	%edi, 4(%esi)	# second_i, first_i_60->prev
	.loc 5 64 0
	movl	%ecx, 4(%edi)	# D.5521, second_i_58->prev
	.loc 5 67 0
	movl	%edi, (%ecx)	# second_i, MEM[(struct tommy_node *)_65].next
	.loc 5 68 0
	movl	%esi, (%edi)	# first_i, second_i_58->next
.LVL68:
.L42:
.LBE323:
.LBE322:
	.loc 5 101 0
	movl	8(%esp), %edx	# %sfp, last
	cmpl	4(%edx), %edi	# last_172->tail, second_i
	je	.L37	#,
.LBE321:
	.loc 5 110 0
	movl	%eax, %edi	# second_i, second_i
.LVL69:
	jmp	.L39	#
.LVL70:
	.p2align 4,,10
	.p2align 3
.L72:
.LBE320:
.LBE319:
	.loc 5 124 0
	movl	16(%esp), %eax	# %sfp, D.5515
.LBB333:
.LBB334:
	.loc 5 77 0
	movl	%esi, 4(%edi)	# D.5515, _160->prev
	.loc 5 80 0
	movl	%edi, (%esi)	# D.5515, _43->next
.LBE334:
.LBE333:
	.loc 5 124 0
	movl	%eax, 4(%ebx)	# D.5515, MEM[base: last_20, offset: 4B]
.LVL71:
.L37:
.LBE343:
.LBE345:
	.loc 5 192 0
	shrl	12(%esp)	# %sfp
.LVL72:
	.loc 5 194 0
	addl	$1, 24(%esp)	#, %sfp
.LVL73:
	.loc 5 192 0
	movl	12(%esp), %eax	# %sfp, mask
.LVL74:
	.loc 5 190 0
	testb	$1, %al	#, mask
	je	.L35	#,
	movl	4(%ebx), %eax	# MEM[base: last_20, offset: 4B], D.5515
.LVL75:
	movl	(%ebx), %edi	# MEM[base: last_20, offset: 0B], D.5515
	addl	$8, %ebx	#, ivtmp.158
.LVL76:
	movl	%eax, 16(%esp)	# D.5515, %sfp
	movl	20(%esp), %eax	# %sfp, last
	movl	%eax, 8(%esp)	# last, %sfp
	jmp	.L45	#
.LVL77:
	.p2align 4,,10
	.p2align 3
.L40:
.LBB346:
.LBB344:
.LBB335:
.LBB331:
	.loc 5 105 0
	cmpl	4(%ebx), %esi	# MEM[base: last_20, offset: 4B], first_i
	je	.L75	#,
	.loc 5 110 0
	movl	%edi, %eax	# second_i, second_i
	movl	(%esi), %esi	# first_i_60->next, first_i
.LVL78:
	movl	%eax, %edi	# second_i, second_i
.LVL79:
	jmp	.L39	#
.LVL80:
	.p2align 4,,10
	.p2align 3
.L74:
.LBB328:
.LBB324:
.LBB325:
	.loc 5 77 0
	movl	%edi, 4(%esi)	# second_i, first_i_60->prev
.LBE325:
.LBE324:
	.loc 5 97 0
	movl	%edi, (%ebx)	# second_i, MEM[base: last_20, offset: 0B]
.LBB327:
.LBB326:
	.loc 5 80 0
	movl	%esi, (%edi)	# first_i, second_i_58->next
	jmp	.L42	#
.LVL81:
	.p2align 4,,10
	.p2align 3
.L73:
.LBE326:
.LBE327:
.LBE328:
.LBE331:
.LBE335:
.LBB336:
.LBB337:
.LBB338:
.LBB339:
	.loc 5 77 0
	movl	16(%esp), %eax	# %sfp, D.5515
.LBE339:
.LBE338:
	.loc 5 132 0
	movl	%edi, (%ebx)	# D.5515, MEM[base: last_20, offset: 0B]
.LBB341:
.LBB340:
	.loc 5 77 0
	movl	%eax, 4(%esi)	# D.5515, first_i_49->prev
	.loc 5 80 0
	movl	%esi, (%eax)	# first_i, _164->next
	jmp	.L37	#
.LVL82:
	.p2align 4,,10
	.p2align 3
.L75:
.LBE340:
.LBE341:
.LBE337:
.LBE336:
.LBB342:
.LBB332:
	.loc 5 107 0
	movl	8(%esp), %eax	# %sfp, last
.LBB329:
.LBB330:
	.loc 5 77 0
	movl	%esi, 4(%edi)	# first_i, second_i_150->prev
	.loc 5 80 0
	movl	%edi, (%esi)	# second_i, _88->next
.LBE330:
.LBE329:
	.loc 5 107 0
	movl	4(%eax), %eax	# last_172->tail, D.5515
	movl	%eax, 4(%ebx)	# D.5515, MEM[base: last_20, offset: 4B]
	jmp	.L37	#
.LVL83:
.L59:
.LBE332:
.LBE342:
.LBE344:
.LBE346:
	.loc 5 182 0
	leal	312(%esp), %eax	#, tmp205
.LVL84:
	.loc 5 188 0
	movl	$0, 24(%esp)	#, %sfp
	.loc 5 182 0
	movl	%eax, 20(%esp)	# tmp205, %sfp
.LVL85:
	.p2align 4,,10
	.p2align 3
.L35:
	.loc 5 185 0
	movl	36(%esp), %eax	# %sfp, node
	.loc 5 188 0
	movl	28(%esp), %ecx	# %sfp, node
	.loc 5 185 0
	movl	%eax, 28(%esp)	# node, %sfp
.LVL86:
	movl	20(%esp), %eax	# %sfp, last
	jmp	.L34	#
.LVL87:
.L71:
.LBE347:
.LBB348:
.LBB349:
	.file 6 "tommytypes.h"
	.loc 6 350 0
	movl	32(%esp), %edi	# %sfp, mask
	rep bsfl	%edi, %eax	# mask, i
.LBE349:
.LBE348:
	.loc 5 210 0
	movl	%eax, %ecx	# i, tmp214
.LBB351:
.LBB350:
	.loc 6 350 0
	movl	%eax, 8(%esp)	# i, %sfp
.LBE350:
.LBE351:
	.loc 5 210 0
	shrl	%cl, %edi	# tmp214, mask
.LVL88:
	.loc 5 211 0
	cmpl	$1, %edi	#, mask
	je	.L47	#,
	leal	56(%esp,%eax,8), %ecx	#, ivtmp.150
	addl	$1, %eax	#, i
.LVL89:
	movl	%ebp, 12(%esp)	# cmp, %sfp
	movl	%eax, 8(%esp)	# i, %sfp
.LVL90:
	movl	%ecx, %ebp	# ivtmp.150, ivtmp.150
.LVL91:
	jmp	.L58	#
.LVL92:
.L48:
	.loc 5 216 0
	movl	0(%ebp), %eax	# MEM[base: _8, offset: 0B], MEM[base: _8, offset: 0B]
	movl	4(%ebp), %edx	# MEM[base: _8, offset: 0B], MEM[base: _8, offset: 0B]
	movl	%eax, 8(%ebp)	# MEM[base: _8, offset: 0B], MEM[base: _8, offset: 8B]
	movl	%edx, 12(%ebp)	# MEM[base: _8, offset: 0B], MEM[base: _8, offset: 8B]
.LVL93:
.L50:
	movl	8(%esp), %eax	# %sfp, i
	addl	$8, %ebp	#, ivtmp.150
	addl	$1, %eax	#, ivtmp.146
	.loc 5 211 0
	cmpl	$1, %edi	#, mask
	je	.L47	#,
.L60:
	movl	%eax, 8(%esp)	# ivtmp.146, %sfp
.LVL94:
.L58:
	.loc 5 212 0
	shrl	%edi	# mask
.LVL95:
	.loc 5 213 0
	testl	$1, %edi	#, mask
	je	.L48	#,
.LVL96:
.LBB352:
.LBB353:
	.loc 5 122 0
	movl	0(%ebp), %ebx	# MEM[base: _154, offset: 0B], second_i
	movl	12(%ebp), %esi	# MEM[base: _154, offset: 12B], D.5515
	subl	$8, %esp	#,
	.cfi_def_cfa_offset 360
	pushl	8(%ebx)	# second_i_72->data
	.cfi_def_cfa_offset 364
	pushl	8(%esi)	# _74->data
	.cfi_def_cfa_offset 368
	movl	28(%esp), %eax	# %sfp, cmp
	call	*%eax	# cmp
.LVL97:
	addl	$16, %esp	#,
	.cfi_def_cfa_offset 352
	testl	%eax, %eax	# D.5520
	jle	.L70	#,
	.loc 5 130 0
	movl	4(%ebp), %edx	# MEM[base: _154, offset: 4B], D.5515
	movl	8(%ebp), %esi	# MEM[base: _154, offset: 8B], first_i
	subl	$8, %esp	#,
	.cfi_def_cfa_offset 360
	pushl	8(%esi)	# first_i_80->data
	.cfi_def_cfa_offset 364
	pushl	8(%edx)	# _82->data
	.cfi_def_cfa_offset 368
	movl	28(%esp), %eax	# %sfp, cmp
	movl	%edx, 32(%esp)	# D.5515, %sfp
	call	*%eax	# cmp
.LVL98:
	addl	$16, %esp	#,
	.cfi_def_cfa_offset 352
	testl	%eax, %eax	# D.5520
	movl	16(%esp), %edx	# %sfp, D.5515
	js	.L76	#,
	movl	%edi, 16(%esp)	# mask, %sfp
	movl	%esi, %edi	# first_i, first_i
.LVL99:
	movl	12(%esp), %esi	# %sfp, cmp
	.p2align 4,,10
	.p2align 3
.L52:
.LVL100:
.LBB354:
.LBB355:
	.loc 5 93 0
	subl	$8, %esp	#,
	.cfi_def_cfa_offset 360
	pushl	8(%ebx)	# second_i_89->data
	.cfi_def_cfa_offset 364
	pushl	8(%edi)	# first_i_91->data
	.cfi_def_cfa_offset 368
	call	*%esi	# cmp
.LVL101:
	addl	$16, %esp	#,
	.cfi_def_cfa_offset 352
	testl	%eax, %eax	# D.5520
	jle	.L53	#,
.LBB356:
	.loc 5 95 0
	cmpl	8(%ebp), %edi	# MEM[base: _154, offset: 8B], first_i
	.loc 5 94 0
	movl	(%ebx), %eax	# second_i_89->next, second_i
.LVL102:
	.loc 5 95 0
	je	.L77	#,
	.loc 5 99 0
	movl	4(%edi), %ecx	# first_i_91->prev, D.5521
.LVL103:
.LBB357:
.LBB358:
	.loc 5 63 0
	movl	%ebx, 4(%edi)	# second_i, first_i_91->prev
	.loc 5 64 0
	movl	%ecx, 4(%ebx)	# D.5521, second_i_89->prev
	.loc 5 67 0
	movl	%ebx, (%ecx)	# second_i, MEM[(struct tommy_node *)_96].next
	.loc 5 68 0
	movl	%edi, (%ebx)	# first_i, second_i_89->next
.LVL104:
.L55:
.LBE358:
.LBE357:
	.loc 5 101 0
	cmpl	4(%ebp), %ebx	# MEM[base: _154, offset: 4B], second_i
	je	.L78	#,
.LBE356:
	.loc 5 110 0
	movl	%eax, %ebx	# second_i, second_i
.LVL105:
	jmp	.L52	#
.LVL106:
.L78:
	movl	16(%esp), %edi	# %sfp, mask
.LVL107:
	movl	8(%esp), %eax	# %sfp, i
.LVL108:
	addl	$8, %ebp	#, ivtmp.150
	addl	$1, %eax	#, ivtmp.146
.LBE355:
.LBE354:
.LBE353:
.LBE352:
	.loc 5 211 0
	cmpl	$1, %edi	#, mask
	jne	.L60	#,
.LVL109:
.L47:
	.loc 5 221 0
	movl	8(%esp), %eax	# %sfp, i
	movl	44(%esp), %ecx	# %sfp, chain
	movl	60(%esp,%eax,8), %edx	# bit,
	movl	56(%esp,%eax,8), %eax	# bit, tmp161
	movl	%edx, 4(%ecx)	#, *chain_13(D)
	movl	%eax, (%ecx)	# tmp161, *chain_13(D)
	.loc 5 222 0
	addl	$332, %esp	#,
	.cfi_remember_state
	.cfi_def_cfa_offset 20
	popl	%ebx	#
	.cfi_restore 3
	.cfi_def_cfa_offset 16
	popl	%esi	#
	.cfi_restore 6
	.cfi_def_cfa_offset 12
	popl	%edi	#
	.cfi_restore 7
	.cfi_def_cfa_offset 8
.LVL110:
	popl	%ebp	#
	.cfi_restore 5
	.cfi_def_cfa_offset 4
	ret
.LVL111:
.L53:
	.cfi_restore_state
.LBB375:
.LBB374:
.LBB367:
.LBB366:
	.loc 5 105 0
	cmpl	12(%ebp), %edi	# MEM[base: _154, offset: 12B], first_i
	je	.L79	#,
	.loc 5 110 0
	movl	%ebx, %eax	# second_i, second_i
	movl	(%edi), %edi	# first_i_91->next, first_i
.LVL112:
	movl	%eax, %ebx	# second_i, second_i
.LVL113:
	jmp	.L52	#
.LVL114:
.L77:
.LBB363:
.LBB359:
.LBB360:
	.loc 5 77 0
	movl	%ebx, 4(%edi)	# second_i, first_i_91->prev
.LBE360:
.LBE359:
	.loc 5 97 0
	movl	%ebx, 8(%ebp)	# second_i, MEM[base: _154, offset: 8B]
.LBB362:
.LBB361:
	.loc 5 80 0
	movl	%edi, (%ebx)	# first_i, second_i_89->next
	jmp	.L55	#
.LVL115:
.L79:
	movl	%edi, %esi	# first_i, first_i
	movl	16(%esp), %edi	# %sfp, mask
.LVL116:
.L70:
.LBE361:
.LBE362:
.LBE363:
.LBB364:
.LBB365:
	.loc 5 77 0
	movl	%esi, 4(%ebx)	# first_i,
	.loc 5 80 0
	movl	%ebx, (%esi)	# second_i,* first_i
.LBE365:
.LBE364:
	.loc 5 107 0
	movl	4(%ebp), %eax	# MEM[base: _154, offset: 4B], MEM[base: _154, offset: 4B]
	movl	%eax, 12(%ebp)	# MEM[base: _154, offset: 4B], MEM[base: _154, offset: 12B]
	jmp	.L50	#
.LVL117:
.L76:
.LBE366:
.LBE367:
.LBB368:
.LBB369:
.LBB370:
.LBB371:
	.loc 5 77 0
	movl	%edx, 4(%esi)	# D.5515, first_i_80->prev
.LBE371:
.LBE370:
	.loc 5 132 0
	movl	%ebx, 8(%ebp)	# second_i, MEM[base: _154, offset: 8B]
.LBB373:
.LBB372:
	.loc 5 80 0
	movl	%esi, (%edx)	# first_i, _82->next
	jmp	.L50	#
.LBE372:
.LBE373:
.LBE369:
.LBE368:
.LBE374:
.LBE375:
	.cfi_endproc
.LFE83:
	.size	tommy_chain_mergesort, .-tommy_chain_mergesort
	.section	.text.unlikely
.LCOLDE4:
	.text
.LHOTE4:
	.section	.text.unlikely
.LCOLDB5:
	.text
.LHOTB5:
	.p2align 4,,15
	.globl	tommy_hash_u32
	.type	tommy_hash_u32, @function
tommy_hash_u32:
.LFB16:
	.file 7 "tommyhash.c"
	.loc 7 70 0
	.cfi_startproc
.LVL118:
	pushl	%edi	#
	.cfi_def_cfa_offset 8
	.cfi_offset 7, -8
	pushl	%esi	#
	.cfi_def_cfa_offset 12
	.cfi_offset 6, -12
	pushl	%ebx	#
	.cfi_def_cfa_offset 16
	.cfi_offset 3, -16
	.loc 7 70 0
	movl	24(%esp), %ecx	# key_len, key_len
	.loc 7 74 0
	movl	16(%esp), %eax	# init_val, init_val
	.loc 7 70 0
	movl	20(%esp), %edx	# void_key, void_key
.LVL119:
	.loc 7 76 0
	cmpl	$12, %ecx	#, key_len
	.loc 7 74 0
	leal	-559038737(%eax,%ecx), %esi	#, c
.LVL120:
	.loc 7 76 0
	movl	%esi, %eax	# c, c
	movl	%esi, %ebx	# c, c
	jbe	.L101	#,
.LVL121:
	.p2align 4,,10
	.p2align 3
.L82:
	.loc 7 79 0
	addl	8(%edx), %eax	# MEM[base: void_key_137, offset: 8B], c
.LVL122:
	.loc 7 78 0
	addl	4(%edx), %ebx	# MEM[base: void_key_137, offset: 4B], b
.LVL123:
	.loc 7 83 0
	subl	$12, %ecx	#, key_len
.LVL124:
	.loc 7 84 0
	addl	$12, %edx	#, void_key
.LVL125:
	subl	%eax, %esi	# c, D.5552
.LVL126:
	.loc 7 81 0
	addl	-12(%edx), %esi	# MEM[base: void_key_137, offset: 0B], a
.LVL127:
	movl	%eax, %edi	# c, D.5553
	roll	$4, %edi	#, D.5553
	addl	%ebx, %eax	# b, c
.LVL128:
	xorl	%edi, %esi	# D.5553, a
.LVL129:
	movl	%esi, %edi	# a, D.5553
	subl	%esi, %ebx	# a, b
.LVL130:
	addl	%eax, %esi	# c, a
.LVL131:
	roll	$6, %edi	#, D.5553
.LVL132:
	xorl	%edi, %ebx	# D.5553, b
.LVL133:
	movl	%ebx, %edi	# b, D.5553
	subl	%ebx, %eax	# b, c
.LVL134:
	addl	%esi, %ebx	# a, b
.LVL135:
	roll	$8, %edi	#, D.5553
.LVL136:
	xorl	%edi, %eax	# D.5553, c
.LVL137:
	movl	%eax, %edi	# c, D.5553
	subl	%eax, %esi	# c, a
.LVL138:
	addl	%ebx, %eax	# b, c
.LVL139:
	roll	$16, %edi	#, D.5553
.LVL140:
	xorl	%edi, %esi	# D.5553, a
.LVL141:
	movl	%esi, %edi	# a, D.5553
	subl	%esi, %ebx	# a, b
.LVL142:
	addl	%eax, %esi	# c, c
.LVL143:
	rorl	$13, %edi	#, D.5553
.LVL144:
	xorl	%edi, %ebx	# D.5553, b
.LVL145:
	movl	%ebx, %edi	# b, D.5553
	subl	%ebx, %eax	# b, c
.LVL146:
	addl	%esi, %ebx	# c, c
.LVL147:
	roll	$4, %edi	#, D.5553
.LVL148:
	xorl	%edi, %eax	# D.5553, c
.LVL149:
	.loc 7 76 0
	cmpl	$12, %ecx	#, key_len
	ja	.L82	#,
.LVL150:
.L101:
	.loc 7 87 0
	jmp	*.L85(,%ecx,4)	#
	.section	.rodata
	.align 4
	.align 4
.L85:
	.long	.L83
	.long	.L84
	.long	.L86
	.long	.L87
	.long	.L88
	.long	.L89
	.long	.L90
	.long	.L91
	.long	.L92
	.long	.L93
	.long	.L94
	.long	.L95
	.long	.L96
	.text
.L95:
	.loc 7 95 0
	movzbl	10(%edx), %ecx	# MEM[(const unsigned char *)void_key_124 + 10B], D.5553
.LVL151:
	sall	$16, %ecx	#, D.5553
	addl	%ecx, %eax	# D.5553, c
.LVL152:
.L94:
	.loc 7 96 0
	movzbl	9(%edx), %ecx	# MEM[(const unsigned char *)void_key_124 + 9B], D.5553
	sall	$8, %ecx	#, D.5553
	addl	%ecx, %eax	# D.5553, c
.LVL153:
.L93:
	.loc 7 97 0
	movzbl	8(%edx), %ecx	# MEM[(const unsigned char *)void_key_124 + 8B], D.5553
	addl	%ecx, %eax	# D.5553, c
.LVL154:
.L92:
	.loc 7 99 0
	addl	4(%edx), %ebx	# MEM[(tommy_uint32_t *)void_key_124 + 4B], c
.LVL155:
	.loc 7 100 0
	addl	(%edx), %esi	# MEM[(tommy_uint32_t *)void_key_124], c
.LVL156:
.L97:
	.loc 7 113 0
	movl	%ebx, %edx	# c, D.5553
	xorl	%ebx, %eax	# c, c
.LVL157:
	roll	$14, %edx	#, D.5553
	subl	%edx, %eax	# D.5553, c
.LVL158:
	movl	%eax, %edx	# c, D.5553
	xorl	%eax, %esi	# c, a
.LVL159:
	roll	$11, %edx	#, D.5553
	subl	%edx, %esi	# D.5553, a
.LVL160:
	movl	%esi, %edx	# a, D.5553
	xorl	%esi, %ebx	# a, b
.LVL161:
	rorl	$7, %edx	#, D.5553
	subl	%edx, %ebx	# D.5553, b
.LVL162:
	movl	%ebx, %edx	# b, D.5553
	xorl	%ebx, %eax	# b, c
.LVL163:
	roll	$16, %edx	#, D.5553
	subl	%edx, %eax	# D.5553, c
.LVL164:
	movl	%eax, %edx	# c, D.5553
	xorl	%eax, %esi	# c, a
.LVL165:
	roll	$4, %edx	#, D.5553
	subl	%edx, %esi	# D.5553, a
.LVL166:
	xorl	%esi, %ebx	# a, b
.LVL167:
	roll	$14, %esi	#, D.5553
.LVL168:
	subl	%esi, %ebx	# D.5553, b
.LVL169:
	xorl	%ebx, %eax	# b, c
.LVL170:
	rorl	$8, %ebx	#, D.5553
.LVL171:
	.loc 7 115 0
	subl	%ebx, %eax	# D.5553, D.5552
.LVL172:
.L83:
	.loc 7 116 0
	popl	%ebx	#
	.cfi_remember_state
	.cfi_restore 3
	.cfi_def_cfa_offset 12
	popl	%esi	#
	.cfi_restore 6
	.cfi_def_cfa_offset 8
	popl	%edi	#
	.cfi_restore 7
	.cfi_def_cfa_offset 4
	ret
.LVL173:
.L91:
	.cfi_restore_state
	.loc 7 102 0
	movzbl	6(%edx), %ecx	# MEM[(const unsigned char *)void_key_124 + 6B], D.5553
.LVL174:
	sall	$16, %ecx	#, D.5553
	addl	%ecx, %ebx	# D.5553, c
.LVL175:
.L90:
	.loc 7 103 0
	movzbl	5(%edx), %ecx	# MEM[(const unsigned char *)void_key_124 + 5B], D.5553
	sall	$8, %ecx	#, D.5553
	addl	%ecx, %ebx	# D.5553, c
.LVL176:
.L89:
	.loc 7 104 0
	movzbl	4(%edx), %ecx	# MEM[(const unsigned char *)void_key_124 + 4B], D.5553
	addl	%ecx, %ebx	# D.5553, c
.LVL177:
.L88:
	.loc 7 106 0
	addl	(%edx), %esi	# MEM[(tommy_uint32_t *)void_key_124], c
.LVL178:
	.loc 7 107 0
	jmp	.L97	#
.LVL179:
.L87:
	.loc 7 108 0
	movzbl	2(%edx), %ecx	# MEM[(const unsigned char *)void_key_124 + 2B], D.5553
.LVL180:
	sall	$16, %ecx	#, D.5553
	addl	%ecx, %esi	# D.5553, c
.LVL181:
.L86:
	.loc 7 109 0
	movzbl	1(%edx), %ecx	# MEM[(const unsigned char *)void_key_124 + 1B], D.5553
	sall	$8, %ecx	#, D.5553
	addl	%ecx, %esi	# D.5553, c
.LVL182:
.L84:
	.loc 7 110 0
	movzbl	(%edx), %edx	# MEM[(const unsigned char *)void_key_124], D.5553
.LVL183:
	addl	%edx, %esi	# D.5553, c
.LVL184:
	jmp	.L97	#
.LVL185:
.L96:
	.loc 7 91 0
	addl	8(%edx), %eax	# MEM[(tommy_uint32_t *)void_key_124 + 8B], c
.LVL186:
	.loc 7 92 0
	addl	4(%edx), %ebx	# MEM[(tommy_uint32_t *)void_key_124 + 4B], c
.LVL187:
	.loc 7 93 0
	addl	(%edx), %esi	# MEM[(tommy_uint32_t *)void_key_124], c
.LVL188:
	.loc 7 94 0
	jmp	.L97	#
	.cfi_endproc
.LFE16:
	.size	tommy_hash_u32, .-tommy_hash_u32
	.section	.text.unlikely
.LCOLDE5:
	.text
.LHOTE5:
	.section	.text.unlikely
.LCOLDB6:
	.text
.LHOTB6:
	.p2align 4,,15
	.globl	tommy_hash_u64
	.type	tommy_hash_u64, @function
tommy_hash_u64:
.LFB17:
	.loc 7 119 0
	.cfi_startproc
.LVL189:
	pushl	%edi	#
	.cfi_def_cfa_offset 8
	.cfi_offset 7, -8
	pushl	%esi	#
	.cfi_def_cfa_offset 12
	.cfi_offset 6, -12
	pushl	%ebx	#
	.cfi_def_cfa_offset 16
	.cfi_offset 3, -16
	.loc 7 119 0
	movl	28(%esp), %esi	# key_len, key_len
	.loc 7 124 0
	movl	20(%esp), %ecx	# init_val, c
	.loc 7 119 0
	movl	24(%esp), %ebx	# void_key, void_key
.LVL190:
	leal	-559038737(%esi), %edi	#, D.5583
	.loc 7 123 0
	addl	16(%esp), %edi	# init_val, b
.LVL191:
	.loc 7 124 0
	addl	%edi, %ecx	# b, c
.LVL192:
	.loc 7 126 0
	cmpl	$12, %esi	#, key_len
	movl	%edi, %eax	# b, b
	jbe	.L124	#,
.LVL193:
	.p2align 4,,10
	.p2align 3
.L105:
	.loc 7 128 0
	addl	4(%ebx), %eax	# MEM[base: void_key_148, offset: 4B], b
.LVL194:
	.loc 7 133 0
	subl	$12, %esi	#, key_len
.LVL195:
	.loc 7 134 0
	addl	$12, %ebx	#, void_key
.LVL196:
	.loc 7 128 0
	movl	%eax, %edx	# b, b
.LVL197:
	.loc 7 129 0
	movl	-4(%ebx), %eax	# MEM[base: void_key_148, offset: 8B], c
.LVL198:
	addl	%ecx, %eax	# c, c
.LVL199:
	subl	%eax, %edi	# c, D.5586
.LVL200:
	.loc 7 131 0
	addl	-12(%ebx), %edi	# MEM[base: void_key_148, offset: 0B], a
.LVL201:
	movl	%eax, %ecx	# c, D.5583
	roll	$4, %ecx	#, D.5583
	xorl	%ecx, %edi	# D.5583, a
.LVL202:
	leal	(%eax,%edx), %ecx	#, c
.LVL203:
	movl	%edi, %eax	# a, D.5583
	subl	%edi, %edx	# a, b
.LVL204:
	roll	$6, %eax	#, D.5583
	addl	%ecx, %edi	# c, a
.LVL205:
	xorl	%eax, %edx	# D.5583, b
.LVL206:
	movl	%ecx, %eax	# c, c
	movl	%edx, %ecx	# b, D.5583
.LVL207:
	subl	%edx, %eax	# b, c
.LVL208:
	addl	%edi, %edx	# a, b
.LVL209:
	roll	$8, %ecx	#, D.5583
.LVL210:
	xorl	%ecx, %eax	# D.5583, c
.LVL211:
	movl	%eax, %ecx	# c, D.5583
	subl	%eax, %edi	# c, a
.LVL212:
	addl	%edx, %eax	# b, c
.LVL213:
	roll	$16, %ecx	#, D.5583
.LVL214:
	xorl	%ecx, %edi	# D.5583, a
.LVL215:
	movl	%edi, %ecx	# a, D.5583
	subl	%edi, %edx	# a, b
.LVL216:
	addl	%eax, %edi	# c, b
.LVL217:
	rorl	$13, %ecx	#, D.5583
.LVL218:
	xorl	%ecx, %edx	# D.5583, b
.LVL219:
	movl	%edx, %ecx	# b, D.5583
	subl	%edx, %eax	# b, c
.LVL220:
	roll	$4, %ecx	#, D.5583
	xorl	%eax, %ecx	# c, c
.LVL221:
	.loc 7 126 0
	cmpl	$12, %esi	#, key_len
	.loc 7 131 0
	leal	(%edx,%edi), %eax	#, b
.LVL222:
	.loc 7 126 0
	ja	.L105	#,
.LVL223:
.L124:
	.loc 7 137 0
	jmp	*.L108(,%esi,4)	#
	.section	.rodata
	.align 4
	.align 4
.L108:
	.long	.L106
	.long	.L107
	.long	.L109
	.long	.L110
	.long	.L111
	.long	.L112
	.long	.L113
	.long	.L114
	.long	.L115
	.long	.L116
	.long	.L117
	.long	.L118
	.long	.L119
	.text
.L118:
	.loc 7 145 0
	movzbl	10(%ebx), %edx	# MEM[(const unsigned char *)void_key_135 + 10B], D.5583
	sall	$16, %edx	#, D.5583
	addl	%edx, %ecx	# D.5583, c
.LVL224:
.L117:
	.loc 7 146 0
	movzbl	9(%ebx), %edx	# MEM[(const unsigned char *)void_key_135 + 9B], D.5583
	sall	$8, %edx	#, D.5583
	addl	%edx, %ecx	# D.5583, c
.LVL225:
.L116:
	.loc 7 147 0
	movzbl	8(%ebx), %edx	# MEM[(const unsigned char *)void_key_135 + 8B], D.5583
	addl	%edx, %ecx	# D.5583, c
.LVL226:
.L115:
	.loc 7 149 0
	addl	4(%ebx), %eax	# MEM[(tommy_uint32_t *)void_key_135 + 4B], b
.LVL227:
	.loc 7 150 0
	addl	(%ebx), %edi	# MEM[(tommy_uint32_t *)void_key_135], b
.LVL228:
.L121:
	.loc 7 163 0
	xorl	%eax, %ecx	# b, c
.LVL229:
	movl	%eax, %edx	# b, D.5583
	roll	$14, %edx	#, D.5583
	movl	%ecx, %ebx	# c, c
.LVL230:
	subl	%edx, %ebx	# D.5583, c
.LVL231:
	movl	%ebx, %edx	# c, D.5583
	xorl	%ebx, %edi	# c, a
.LVL232:
	roll	$11, %edx	#, D.5583
	subl	%edx, %edi	# D.5583, a
.LVL233:
	xorl	%edi, %eax	# a, b
.LVL234:
	movl	%eax, %edx	# b, b
.LVL235:
	movl	%edi, %eax	# a, D.5583
.LVL236:
	rorl	$7, %eax	#, D.5583
	subl	%eax, %edx	# D.5583, b
.LVL237:
	xorl	%edx, %ebx	# b, c
.LVL238:
	movl	%edx, %eax	# b, D.5583
	roll	$16, %eax	#, D.5583
	movl	%ebx, %ecx	# c, c
.LVL239:
	.loc 7 165 0
	xorl	%ebx, %ebx	# D.5584
	.loc 7 163 0
	subl	%eax, %ecx	# D.5583, c
.LVL240:
	movl	%ecx, %eax	# c, D.5583
	xorl	%ecx, %edi	# c, a
.LVL241:
	roll	$4, %eax	#, D.5583
	subl	%eax, %edi	# D.5583, a
.LVL242:
	xorl	%edi, %edx	# a, b
.LVL243:
	roll	$14, %edi	#, D.5583
.LVL244:
	movl	%edx, %eax	# b, b
	subl	%edi, %eax	# D.5583, b
.LVL245:
	movl	%eax, %edx	# b, D.5583
	xorl	%eax, %ecx	# b, c
.LVL246:
	rorl	$8, %edx	#, D.5583
	subl	%edx, %ecx	# D.5583, c
.LVL247:
	.loc 7 165 0
	movl	%eax, %edx	# D.5584, D.5584
	xorl	%eax, %eax	# D.5584
.LVL248:
	addl	%ecx, %eax	# D.5584, D.5582
	adcl	%ebx, %edx	# D.5584, D.5582
.LVL249:
.L120:
	.loc 7 166 0
	popl	%ebx	#
	.cfi_remember_state
	.cfi_restore 3
	.cfi_def_cfa_offset 12
	popl	%esi	#
	.cfi_restore 6
	.cfi_def_cfa_offset 8
.LVL250:
	popl	%edi	#
	.cfi_restore 7
	.cfi_def_cfa_offset 4
	ret
.LVL251:
.L114:
	.cfi_restore_state
	.loc 7 152 0
	movzbl	6(%ebx), %edx	# MEM[(const unsigned char *)void_key_135 + 6B], D.5583
	sall	$16, %edx	#, D.5583
	addl	%edx, %eax	# D.5583, b
.LVL252:
.L113:
	.loc 7 153 0
	movzbl	5(%ebx), %edx	# MEM[(const unsigned char *)void_key_135 + 5B], D.5583
	sall	$8, %edx	#, D.5583
	addl	%edx, %eax	# D.5583, b
.LVL253:
.L112:
	.loc 7 154 0
	movzbl	4(%ebx), %edx	# MEM[(const unsigned char *)void_key_135 + 4B], D.5583
	addl	%edx, %eax	# D.5583, b
.LVL254:
.L111:
	.loc 7 156 0
	addl	(%ebx), %edi	# MEM[(tommy_uint32_t *)void_key_135], b
.LVL255:
	.loc 7 157 0
	jmp	.L121	#
.LVL256:
.L110:
	.loc 7 158 0
	movzbl	2(%ebx), %edx	# MEM[(const unsigned char *)void_key_135 + 2B], D.5583
	sall	$16, %edx	#, D.5583
	addl	%edx, %edi	# D.5583, b
.LVL257:
.L109:
	.loc 7 159 0
	movzbl	1(%ebx), %edx	# MEM[(const unsigned char *)void_key_135 + 1B], D.5583
	sall	$8, %edx	#, D.5583
	addl	%edx, %edi	# D.5583, b
.LVL258:
.L107:
	.loc 7 160 0
	movzbl	(%ebx), %edx	# MEM[(const unsigned char *)void_key_135], D.5583
	addl	%edx, %edi	# D.5583, b
.LVL259:
	jmp	.L121	#
.L106:
	.loc 7 139 0
	movl	%eax, %edx	# D.5584, D.5584
	xorl	%eax, %eax	# D.5584
.LVL260:
	xorl	%edi, %edi	# D.5584
.LVL261:
	addl	%ecx, %eax	# D.5584, D.5582
	adcl	%edi, %edx	# D.5584, D.5582
.LVL262:
	jmp	.L120	#
.LVL263:
.L119:
	.loc 7 141 0
	addl	8(%ebx), %ecx	# MEM[(tommy_uint32_t *)void_key_135 + 8B], c
.LVL264:
	.loc 7 142 0
	addl	4(%ebx), %eax	# MEM[(tommy_uint32_t *)void_key_135 + 4B], b
.LVL265:
	.loc 7 143 0
	addl	(%ebx), %edi	# MEM[(tommy_uint32_t *)void_key_135], b
.LVL266:
	.loc 7 144 0
	jmp	.L121	#
	.cfi_endproc
.LFE17:
	.size	tommy_hash_u64, .-tommy_hash_u64
	.section	.text.unlikely
.LCOLDE6:
	.text
.LHOTE6:
	.section	.text.unlikely
.LCOLDB7:
	.text
.LHOTB7:
	.p2align 4,,15
	.globl	tommy_allocator_init
	.type	tommy_allocator_init, @function
tommy_allocator_init:
.LFB18:
	.file 8 "tommyalloc.c"
	.loc 8 41 0
	.cfi_startproc
.LVL267:
	pushl	%esi	#
	.cfi_def_cfa_offset 8
	.cfi_offset 6, -8
	pushl	%ebx	#
	.cfi_def_cfa_offset 12
	.cfi_offset 3, -12
	.loc 8 44 0
	movl	$4, %eax	#, tmp90
	.loc 8 41 0
	movl	20(%esp), %ecx	# align_size, align_size
	movl	16(%esp), %ebx	# block_size, block_size
	movl	12(%esp), %esi	# alloc, alloc
	.loc 8 44 0
	cmpl	$3, %ecx	#, align_size
	cmovbe	%eax, %ecx	# align_size,, tmp90, align_size
.LVL268:
	.loc 8 47 0
	xorl	%edx, %edx	# tmp88
	movl	%ebx, %eax	# block_size, tmp89
	divl	%ecx	# align_size
	testl	%edx, %edx	# tmp88
	je	.L128	#,
	addl	%ecx, %ebx	# align_size, D.5589
	.loc 8 48 0
	subl	%edx, %ebx	# tmp88, block_size
.LVL269:
.L128:
	.loc 8 51 0
	movl	%ebx, 8(%esi)	# block_size, alloc_9(D)->block_size
	.loc 8 52 0
	movl	%ecx, 12(%esi)	# align_size, alloc_9(D)->align_size
	.loc 8 54 0
	movl	$0, 16(%esi)	#, alloc_9(D)->count
	.loc 8 55 0
	movl	$0, (%esi)	#, alloc_9(D)->free_block
	.loc 8 56 0
	movl	$0, 4(%esi)	#, alloc_9(D)->used_segment
	.loc 8 57 0
	popl	%ebx	#
	.cfi_restore 3
	.cfi_def_cfa_offset 8
.LVL270:
	popl	%esi	#
	.cfi_restore 6
	.cfi_def_cfa_offset 4
	ret
	.cfi_endproc
.LFE18:
	.size	tommy_allocator_init, .-tommy_allocator_init
	.section	.text.unlikely
.LCOLDE7:
	.text
.LHOTE7:
	.section	.text.unlikely
.LCOLDB8:
	.text
.LHOTB8:
	.p2align 4,,15
	.globl	tommy_allocator_done
	.type	tommy_allocator_done, @function
tommy_allocator_done:
.LFB20:
	.loc 8 77 0
	.cfi_startproc
.LVL271:
	pushl	%esi	#
	.cfi_def_cfa_offset 8
	.cfi_offset 6, -8
	pushl	%ebx	#
	.cfi_def_cfa_offset 12
	.cfi_offset 3, -12
	subl	$4, %esp	#,
	.cfi_def_cfa_offset 16
	.loc 8 77 0
	movl	16(%esp), %esi	# alloc, alloc
.LVL272:
.LBB376:
.LBB377:
	.loc 8 64 0
	movl	4(%esi), %eax	# alloc_2(D)->used_segment, block
.LVL273:
	.loc 8 65 0
	testl	%eax, %eax	# block
	je	.L136	#,
	.p2align 4,,10
	.p2align 3
.L137:
.LBB378:
	.loc 8 66 0
	movl	(%eax), %ebx	# block_15->next, block
.LVL274:
	.loc 8 67 0
	subl	$12, %esp	#,
	.cfi_def_cfa_offset 28
	pushl	%eax	# block
	.cfi_def_cfa_offset 32
	call	free	#
.LVL275:
.LBE378:
	.loc 8 65 0
	addl	$16, %esp	#,
	.cfi_def_cfa_offset 16
	testl	%ebx, %ebx	# block
	movl	%ebx, %eax	# block, block
	jne	.L137	#,
.LVL276:
.L136:
	.loc 8 71 0
	movl	$0, 16(%esi)	#, alloc_2(D)->count
	.loc 8 72 0
	movl	$0, (%esi)	#, alloc_2(D)->free_block
	.loc 8 73 0
	movl	$0, 4(%esi)	#, alloc_2(D)->used_segment
.LBE377:
.LBE376:
	.loc 8 79 0
	addl	$4, %esp	#,
	.cfi_def_cfa_offset 12
	popl	%ebx	#
	.cfi_restore 3
	.cfi_def_cfa_offset 8
	popl	%esi	#
	.cfi_restore 6
	.cfi_def_cfa_offset 4
.LVL277:
	ret
	.cfi_endproc
.LFE20:
	.size	tommy_allocator_done, .-tommy_allocator_done
	.section	.text.unlikely
.LCOLDE8:
	.text
.LHOTE8:
	.section	.text.unlikely
.LCOLDB9:
	.text
.LHOTB9:
	.p2align 4,,15
	.globl	tommy_allocator_alloc
	.type	tommy_allocator_alloc, @function
tommy_allocator_alloc:
.LFB21:
	.loc 8 82 0
	.cfi_startproc
.LVL278:
	pushl	%ebp	#
	.cfi_def_cfa_offset 8
	.cfi_offset 5, -8
	pushl	%edi	#
	.cfi_def_cfa_offset 12
	.cfi_offset 7, -12
	pushl	%esi	#
	.cfi_def_cfa_offset 16
	.cfi_offset 6, -16
	pushl	%ebx	#
	.cfi_def_cfa_offset 20
	.cfi_offset 3, -20
	subl	$12, %esp	#,
	.cfi_def_cfa_offset 32
	.loc 8 82 0
	movl	32(%esp), %esi	# alloc, alloc
	.loc 8 86 0
	movl	(%esi), %ebx	# alloc_6(D)->free_block, D.5617
	testl	%ebx, %ebx	# D.5617
	je	.L142	#,
	movl	(%ebx), %eax	# _7->next, D.5617
.L143:
.LVL279:
	.loc 8 118 0
	movl	%eax, (%esi)	# D.5617, alloc_6(D)->free_block
	.loc 8 120 0
	addl	$1, 16(%esi)	#, alloc_6(D)->count
	.loc 8 123 0
	addl	$12, %esp	#,
	.cfi_remember_state
	.cfi_def_cfa_offset 20
	movl	%ebx, %eax	# D.5617,
	popl	%ebx	#
	.cfi_restore 3
	.cfi_def_cfa_offset 16
.LVL280:
	popl	%esi	#
	.cfi_restore 6
	.cfi_def_cfa_offset 12
	popl	%edi	#
	.cfi_restore 7
	.cfi_def_cfa_offset 8
	popl	%ebp	#
	.cfi_restore 5
	.cfi_def_cfa_offset 4
	ret
.LVL281:
	.p2align 4,,10
	.p2align 3
.L142:
	.cfi_restore_state
.LBB381:
	.loc 8 89 0
	subl	$12, %esp	#,
	.cfi_def_cfa_offset 44
	pushl	$4032	#
	.cfi_def_cfa_offset 48
	call	malloc	#
.LVL282:
	.loc 8 93 0
	movl	4(%esi), %edx	# alloc_6(D)->used_segment, alloc_6(D)->used_segment
	.loc 8 95 0
	leal	4(%eax), %ecx	#, free_block
.LVL283:
	.loc 8 99 0
	movl	12(%esi), %edi	# alloc_6(D)->align_size, D.5616
	.loc 8 94 0
	movl	%eax, 4(%esi)	# tmp101, alloc_6(D)->used_segment
	.loc 8 100 0
	addl	$16, %esp	#,
	.cfi_def_cfa_offset 32
	.loc 8 93 0
	movl	%edx, (%eax)	# alloc_6(D)->used_segment, segment_9->next
	.loc 8 99 0
	xorl	%edx, %edx	# tmp103
	movl	%ecx, %eax	# free_block, tmp104
.LVL284:
	divl	%edi	# D.5616
.LVL285:
	.loc 8 88 0
	movl	$4032, %eax	#, size
	.loc 8 100 0
	testl	%edx, %edx	# tmp103
	je	.L144	#,
	.loc 8 101 0
	movl	%edi, %ebp	# D.5616, D.5616
	subl	%edi, %eax	# D.5616, D.5616
	subl	%edx, %ebp	# tmp103, D.5616
	.loc 8 102 0
	addl	%edx, %eax	# tmp103, size
	.loc 8 101 0
	addl	%ebp, %ecx	# D.5616, free_block
.LVL286:
.L144:
	.loc 8 106 0
	movl	8(%esi), %edx	# alloc_6(D)->block_size, D.5616
.LVL287:
	cmpl	%edx, %eax	# D.5616, size
	jae	.L149	#,
	jmp	.L152	#
.LVL288:
	.p2align 4,,10
	.p2align 3
.L148:
	movl	%ecx, %ebx	# free_block, D.5617
.LBB382:
	.loc 8 111 0
	movl	%edi, %ecx	# free_block, free_block
.LVL289:
.L149:
	.loc 8 112 0
	subl	%edx, %eax	# D.5616, size
.LVL290:
	.loc 8 108 0
	movl	%ebx, (%ecx)	# D.5617, MEM[base: free_block_36, offset: 0B]
	.loc 8 111 0
	leal	(%ecx,%edx), %edi	#, free_block
.LVL291:
.LBE382:
	.loc 8 106 0
	cmpl	%edx, %eax	# D.5616, size
	jae	.L148	#,
	movl	%ebx, %eax	# D.5617, D.5617
.LVL292:
	movl	%ecx, %ebx	# free_block, D.5617
	jmp	.L143	#
.LVL293:
.L152:
	movl	0, %eax	# MEM[(struct tommy_allocator_entry_struct *)0B].next, D.5617
.LVL294:
	jmp	.L143	#
.LBE381:
	.cfi_endproc
.LFE21:
	.size	tommy_allocator_alloc, .-tommy_allocator_alloc
	.section	.text.unlikely
.LCOLDE9:
	.text
.LHOTE9:
	.section	.text.unlikely
.LCOLDB10:
	.text
.LHOTB10:
	.p2align 4,,15
	.globl	tommy_allocator_free
	.type	tommy_allocator_free, @function
tommy_allocator_free:
.LFB22:
	.loc 8 126 0
	.cfi_startproc
.LVL295:
	.loc 8 126 0
	movl	4(%esp), %eax	# alloc, alloc
	movl	8(%esp), %edx	# ptr, ptr
.LVL296:
	.loc 8 130 0
	movl	(%eax), %ecx	# alloc_3(D)->free_block, alloc_3(D)->free_block
	movl	%ecx, (%edx)	# alloc_3(D)->free_block, MEM[(struct tommy_allocator_entry *)ptr_1(D)].next
	.loc 8 131 0
	movl	%edx, (%eax)	# ptr, alloc_3(D)->free_block
	.loc 8 133 0
	subl	$1, 16(%eax)	#, alloc_3(D)->count
	ret
	.cfi_endproc
.LFE22:
	.size	tommy_allocator_free, .-tommy_allocator_free
	.section	.text.unlikely
.LCOLDE10:
	.text
.LHOTE10:
	.section	.text.unlikely
.LCOLDB11:
	.text
.LHOTB11:
	.p2align 4,,15
	.globl	tommy_allocator_memory_usage
	.type	tommy_allocator_memory_usage, @function
tommy_allocator_memory_usage:
.LFB23:
	.loc 8 137 0
	.cfi_startproc
.LVL297:
	.loc 8 137 0
	movl	4(%esp), %edx	# alloc, alloc
	.loc 8 138 0
	movl	8(%edx), %eax	# alloc_2(D)->block_size, alloc_2(D)->block_size
	imull	16(%edx), %eax	# alloc_2(D)->count, D.5625
	.loc 8 139 0
	ret
	.cfi_endproc
.LFE23:
	.size	tommy_allocator_memory_usage, .-tommy_allocator_memory_usage
	.section	.text.unlikely
.LCOLDE11:
	.text
.LHOTE11:
	.section	.text.unlikely
.LCOLDB12:
	.text
.LHOTB12:
	.p2align 4,,15
	.globl	tommy_array_init
	.type	tommy_array_init, @function
tommy_array_init:
.LFB41:
	.file 9 "tommyarray.c"
	.loc 9 36 0
	.cfi_startproc
.LVL298:
	pushl	%edi	#
	.cfi_def_cfa_offset 8
	.cfi_offset 7, -8
	pushl	%ebx	#
	.cfi_def_cfa_offset 12
	.cfi_offset 3, -12
	subl	$16, %esp	#,
	.cfi_def_cfa_offset 28
	.loc 9 36 0
	movl	28(%esp), %ebx	# array, array
	.loc 9 38 0
	movl	$6, 128(%ebx)	#, array_2(D)->bucket_bit
	.loc 9 39 0
	movl	$64, 132(%ebx)	#, array_2(D)->bucket_max
	.loc 9 40 0
	pushl	$256	#
	.cfi_def_cfa_offset 32
	call	malloc	#
.LVL299:
	movl	%eax, %edx	#, tmp85
	movl	%eax, (%ebx)	# tmp85, array_2(D)->bucket
	.loc 9 43 0
	movl	$64, %ecx	#, tmp88
	xorl	%eax, %eax	# tmp87
	movl	%edx, %edi	# tmp85, D.5634
	.loc 9 45 0
	movl	$1, 136(%ebx)	#, array_2(D)->bucket_mac
	.loc 9 43 0
	rep stosl
	.loc 9 46 0
	movl	$0, 140(%ebx)	#, array_2(D)->size
	.loc 9 47 0
	addl	$20, %esp	#,
	.cfi_def_cfa_offset 12
	popl	%ebx	#
	.cfi_restore 3
	.cfi_def_cfa_offset 8
	popl	%edi	#
	.cfi_restore 7
	.cfi_def_cfa_offset 4
	ret
	.cfi_endproc
.LFE41:
	.size	tommy_array_init, .-tommy_array_init
	.section	.text.unlikely
.LCOLDE12:
	.text
.LHOTE12:
	.section	.text.unlikely
.LCOLDB13:
	.text
.LHOTB13:
	.p2align 4,,15
	.globl	tommy_array_done
	.type	tommy_array_done, @function
tommy_array_done:
.LFB42:
	.loc 9 50 0
	.cfi_startproc
.LVL300:
	pushl	%esi	#
	.cfi_def_cfa_offset 8
	.cfi_offset 6, -8
	pushl	%ebx	#
	.cfi_def_cfa_offset 12
	.cfi_offset 3, -12
	.loc 9 52 0
	xorl	%ebx, %ebx	# i
	.loc 9 50 0
	subl	$4, %esp	#,
	.cfi_def_cfa_offset 16
	.loc 9 50 0
	movl	16(%esp), %esi	# array, array
	.loc 9 52 0
	movl	136(%esi), %eax	# array_4(D)->bucket_mac,
	testl	%eax, %eax	#
	je	.L157	#,
.LVL301:
	.p2align 4,,10
	.p2align 3
.L161:
	.loc 9 53 0 discriminator 3
	subl	$12, %esp	#,
	.cfi_def_cfa_offset 28
	pushl	(%esi,%ebx,4)	# MEM[base: array_4(D), index: i_12, step: 4, offset: 0B]
	.cfi_def_cfa_offset 32
	.loc 9 52 0 discriminator 3
	addl	$1, %ebx	#, i
.LVL302:
	.loc 9 53 0 discriminator 3
	call	free	#
.LVL303:
	.loc 9 52 0 discriminator 3
	addl	$16, %esp	#,
	.cfi_def_cfa_offset 16
	cmpl	%ebx, 136(%esi)	# i, array_4(D)->bucket_mac
	ja	.L161	#,
.LVL304:
.L157:
	.loc 9 54 0
	addl	$4, %esp	#,
	.cfi_def_cfa_offset 12
	popl	%ebx	#
	.cfi_restore 3
	.cfi_def_cfa_offset 8
	popl	%esi	#
	.cfi_restore 6
	.cfi_def_cfa_offset 4
	ret
	.cfi_endproc
.LFE42:
	.size	tommy_array_done, .-tommy_array_done
	.section	.text.unlikely
.LCOLDE13:
	.text
.LHOTE13:
	.section	.text.unlikely
.LCOLDB14:
	.text
.LHOTB14:
	.p2align 4,,15
	.globl	tommy_array_grow
	.type	tommy_array_grow, @function
tommy_array_grow:
.LFB43:
	.loc 9 57 0
	.cfi_startproc
.LVL305:
	pushl	%ebp	#
	.cfi_def_cfa_offset 8
	.cfi_offset 5, -8
	pushl	%edi	#
	.cfi_def_cfa_offset 12
	.cfi_offset 7, -12
	pushl	%esi	#
	.cfi_def_cfa_offset 16
	.cfi_offset 6, -16
	pushl	%ebx	#
	.cfi_def_cfa_offset 20
	.cfi_offset 3, -20
	subl	$28, %esp	#,
	.cfi_def_cfa_offset 48
	.loc 9 57 0
	movl	48(%esp), %esi	# array, array
	.loc 9 58 0
	movl	132(%esi), %ebx	# array_4(D)->bucket_max, D.5660
	cmpl	%ebx, 52(%esp)	# D.5660, size
	jbe	.L169	#,
	movl	136(%esi), %eax	# array_4(D)->bucket_mac, D.5660
	movl	128(%esi), %ecx	# array_4(D)->bucket_bit, D.5660
	movl	%eax, %edi	# D.5660, D.5659
	movl	%ecx, %ebp	# D.5660, D.5660
	subl	%ecx, %edi	# D.5660, D.5659
	leal	(%esi,%edi,4), %edx	#, D.5663
	leal	1(%eax), %edi	#, D.5660
	subl	%ecx, %edi	# D.5660, D.5660
	movl	%edx, 12(%esp)	# D.5663, %sfp
	.loc 9 67 0
	movl	%edi, %eax	# D.5660, D.5660
	movl	%esi, %edi	# array, array
	movl	%eax, %esi	# D.5660, D.5660
	.p2align 4,,10
	.p2align 3
.L168:
	.loc 9 60 0
	subl	$12, %esp	#,
	.cfi_def_cfa_offset 60
	sall	$2, %ebx	#, D.5660
	pushl	%ebx	# D.5660
	.cfi_def_cfa_offset 64
	call	malloc	#
.LVL306:
	movl	28(%esp), %edx	# %sfp, D.5663
	.loc 9 63 0
	addl	$12, %esp	#,
	.cfi_def_cfa_offset 52
	.loc 9 60 0
	movl	%eax, (%edx,%ebp,4)	# tmp106, MEM[base: _41, index: _37, step: 4, offset: 0B]
	.loc 9 63 0
	pushl	%ebx	# D.5660
	.cfi_def_cfa_offset 56
	.loc 9 67 0
	movl	$1, %ebx	#, D.5660
	.loc 9 63 0
	pushl	$0	#
	.cfi_def_cfa_offset 60
	pushl	%eax	# tmp106
	.cfi_def_cfa_offset 64
	call	memset	#
.LVL307:
	leal	(%esi,%ebp), %eax	#, tmp113
	.loc 9 66 0
	addl	$1, %ebp	#, D.5660
	.loc 9 58 0
	addl	$16, %esp	#,
	.cfi_def_cfa_offset 48
	.loc 9 67 0
	movl	%ebp, %ecx	# D.5660, tmp130
	.loc 9 66 0
	movl	%ebp, 128(%edi)	# D.5660, array_4(D)->bucket_bit
	.loc 9 67 0
	sall	%cl, %ebx	# tmp130, D.5660
	.loc 9 58 0
	cmpl	%ebx, 52(%esp)	# D.5660, size
	movl	%eax, 136(%edi)	# tmp113, array_4(D)->bucket_mac
	.loc 9 67 0
	movl	%ebx, 132(%edi)	# D.5660, array_4(D)->bucket_max
	.loc 9 58 0
	ja	.L168	#,
	movl	%edi, %esi	# array, array
.L169:
	.loc 9 70 0
	movl	140(%esi), %eax	# array_4(D)->size, tmp125
	cmpl	%eax, 52(%esp)	# tmp125, size
	jbe	.L164	#,
	.loc 9 71 0
	movl	52(%esp), %eax	# size, tmp131
	movl	%eax, 140(%esi)	# tmp131, array_4(D)->size
.L164:
	.loc 9 72 0
	addl	$28, %esp	#,
	.cfi_def_cfa_offset 20
	popl	%ebx	#
	.cfi_restore 3
	.cfi_def_cfa_offset 16
	popl	%esi	#
	.cfi_restore 6
	.cfi_def_cfa_offset 12
	popl	%edi	#
	.cfi_restore 7
	.cfi_def_cfa_offset 8
	popl	%ebp	#
	.cfi_restore 5
	.cfi_def_cfa_offset 4
	ret
	.cfi_endproc
.LFE43:
	.size	tommy_array_grow, .-tommy_array_grow
	.section	.text.unlikely
.LCOLDE14:
	.text
.LHOTE14:
	.section	.text.unlikely
.LCOLDB15:
	.text
.LHOTB15:
	.p2align 4,,15
	.globl	tommy_array_memory_usage
	.type	tommy_array_memory_usage, @function
tommy_array_memory_usage:
.LFB44:
	.loc 9 75 0
	.cfi_startproc
.LVL308:
	.loc 9 76 0
	movl	4(%esp), %eax	# array, array
	movl	132(%eax), %eax	# array_2(D)->bucket_max, array_2(D)->bucket_max
	sall	$2, %eax	#, D.5670
	.loc 9 77 0
	ret
	.cfi_endproc
.LFE44:
	.size	tommy_array_memory_usage, .-tommy_array_memory_usage
	.section	.text.unlikely
.LCOLDE15:
	.text
.LHOTE15:
	.section	.text.unlikely
.LCOLDB16:
	.text
.LHOTB16:
	.p2align 4,,15
	.globl	tommy_arrayof_init
	.type	tommy_arrayof_init, @function
tommy_arrayof_init:
.LFB47:
	.file 10 "tommyarrayof.c"
	.loc 10 36 0
	.cfi_startproc
.LVL309:
	pushl	%esi	#
	.cfi_def_cfa_offset 8
	.cfi_offset 6, -8
	pushl	%ebx	#
	.cfi_def_cfa_offset 12
	.cfi_offset 3, -12
	subl	$16, %esp	#,
	.cfi_def_cfa_offset 28
	.loc 10 36 0
	movl	28(%esp), %ebx	# array, array
	movl	32(%esp), %esi	# element_size, element_size
	.loc 10 38 0
	movl	%esi, 128(%ebx)	# element_size, array_2(D)->element_size
	.loc 10 41 0
	sall	$6, %esi	#, D.5675
	.loc 10 39 0
	movl	$6, 132(%ebx)	#, array_2(D)->bucket_bit
	.loc 10 40 0
	movl	$64, 136(%ebx)	#, array_2(D)->bucket_max
	.loc 10 41 0
	pushl	%esi	# D.5675
	.cfi_def_cfa_offset 32
	call	malloc	#
.LVL310:
	.loc 10 44 0
	addl	$12, %esp	#,
	.cfi_def_cfa_offset 20
	.loc 10 41 0
	movl	%eax, (%ebx)	# tmp87, array_2(D)->bucket
	.loc 10 44 0
	pushl	%esi	# D.5675
	.cfi_def_cfa_offset 24
	pushl	$0	#
	.cfi_def_cfa_offset 28
	pushl	%eax	# tmp87
	.cfi_def_cfa_offset 32
	call	memset	#
.LVL311:
	.loc 10 46 0
	movl	$1, 140(%ebx)	#, array_2(D)->bucket_mac
	.loc 10 47 0
	movl	$0, 144(%ebx)	#, array_2(D)->size
	.loc 10 48 0
	addl	$20, %esp	#,
	.cfi_def_cfa_offset 12
	popl	%ebx	#
	.cfi_restore 3
	.cfi_def_cfa_offset 8
	popl	%esi	#
	.cfi_restore 6
	.cfi_def_cfa_offset 4
	ret
	.cfi_endproc
.LFE47:
	.size	tommy_arrayof_init, .-tommy_arrayof_init
	.section	.text.unlikely
.LCOLDE16:
	.text
.LHOTE16:
	.section	.text.unlikely
.LCOLDB17:
	.text
.LHOTB17:
	.p2align 4,,15
	.globl	tommy_arrayof_done
	.type	tommy_arrayof_done, @function
tommy_arrayof_done:
.LFB48:
	.loc 10 51 0
	.cfi_startproc
.LVL312:
	pushl	%esi	#
	.cfi_def_cfa_offset 8
	.cfi_offset 6, -8
	pushl	%ebx	#
	.cfi_def_cfa_offset 12
	.cfi_offset 3, -12
	.loc 10 53 0
	xorl	%ebx, %ebx	# i
	.loc 10 51 0
	subl	$4, %esp	#,
	.cfi_def_cfa_offset 16
	.loc 10 51 0
	movl	16(%esp), %esi	# array, array
	.loc 10 53 0
	movl	140(%esi), %eax	# array_4(D)->bucket_mac,
	testl	%eax, %eax	#
	je	.L175	#,
.LVL313:
	.p2align 4,,10
	.p2align 3
.L179:
	.loc 10 54 0 discriminator 3
	subl	$12, %esp	#,
	.cfi_def_cfa_offset 28
	pushl	(%esi,%ebx,4)	# MEM[base: array_4(D), index: i_12, step: 4, offset: 0B]
	.cfi_def_cfa_offset 32
	.loc 10 53 0 discriminator 3
	addl	$1, %ebx	#, i
.LVL314:
	.loc 10 54 0 discriminator 3
	call	free	#
.LVL315:
	.loc 10 53 0 discriminator 3
	addl	$16, %esp	#,
	.cfi_def_cfa_offset 16
	cmpl	%ebx, 140(%esi)	# i, array_4(D)->bucket_mac
	ja	.L179	#,
.LVL316:
.L175:
	.loc 10 55 0
	addl	$4, %esp	#,
	.cfi_def_cfa_offset 12
	popl	%ebx	#
	.cfi_restore 3
	.cfi_def_cfa_offset 8
	popl	%esi	#
	.cfi_restore 6
	.cfi_def_cfa_offset 4
	ret
	.cfi_endproc
.LFE48:
	.size	tommy_arrayof_done, .-tommy_arrayof_done
	.section	.text.unlikely
.LCOLDE17:
	.text
.LHOTE17:
	.section	.text.unlikely
.LCOLDB18:
	.text
.LHOTB18:
	.p2align 4,,15
	.globl	tommy_arrayof_grow
	.type	tommy_arrayof_grow, @function
tommy_arrayof_grow:
.LFB49:
	.loc 10 58 0
	.cfi_startproc
.LVL317:
	pushl	%ebp	#
	.cfi_def_cfa_offset 8
	.cfi_offset 5, -8
	pushl	%edi	#
	.cfi_def_cfa_offset 12
	.cfi_offset 7, -12
	pushl	%esi	#
	.cfi_def_cfa_offset 16
	.cfi_offset 6, -16
	pushl	%ebx	#
	.cfi_def_cfa_offset 20
	.cfi_offset 3, -20
	subl	$28, %esp	#,
	.cfi_def_cfa_offset 48
	.loc 10 58 0
	movl	48(%esp), %esi	# array, array
	.loc 10 59 0
	movl	136(%esi), %ebx	# array_4(D)->bucket_max, D.5699
	cmpl	%ebx, 52(%esp)	# D.5699, size
	jbe	.L187	#,
	movl	140(%esi), %eax	# array_4(D)->bucket_mac, D.5699
	movl	132(%esi), %ecx	# array_4(D)->bucket_bit, D.5699
	movl	128(%esi), %edx	# array_4(D)->element_size, D.5699
	movl	%eax, %edi	# D.5699, D.5698
	movl	%ecx, %ebp	# D.5699, D.5699
	subl	%ecx, %edi	# D.5699, D.5698
	movl	%edx, 12(%esp)	# D.5699, %sfp
	leal	(%esi,%edi,4), %edx	#, D.5701
	leal	1(%eax), %edi	#, D.5699
	subl	%ecx, %edi	# D.5699, D.5699
	movl	%edx, 8(%esp)	# D.5701, %sfp
	.loc 10 68 0
	movl	%edi, %eax	# D.5699, D.5699
	movl	%esi, %edi	# array, array
	movl	%eax, %esi	# D.5699, D.5699
	.p2align 4,,10
	.p2align 3
.L186:
	.loc 10 61 0
	imull	12(%esp), %ebx	# %sfp, D.5699
	subl	$12, %esp	#,
	.cfi_def_cfa_offset 60
	pushl	%ebx	# D.5699
	.cfi_def_cfa_offset 64
	call	malloc	#
.LVL318:
	movl	24(%esp), %edx	# %sfp, D.5701
	.loc 10 64 0
	addl	$12, %esp	#,
	.cfi_def_cfa_offset 52
	.loc 10 61 0
	movl	%eax, (%edx,%ebp,4)	# tmp107, MEM[base: _14, index: _40, step: 4, offset: 0B]
	.loc 10 64 0
	pushl	%ebx	# D.5699
	.cfi_def_cfa_offset 56
	.loc 10 68 0
	movl	$1, %ebx	#, D.5699
	.loc 10 64 0
	pushl	$0	#
	.cfi_def_cfa_offset 60
	pushl	%eax	# tmp107
	.cfi_def_cfa_offset 64
	call	memset	#
.LVL319:
	leal	(%esi,%ebp), %eax	#, tmp114
	.loc 10 67 0
	addl	$1, %ebp	#, D.5699
	.loc 10 59 0
	addl	$16, %esp	#,
	.cfi_def_cfa_offset 48
	.loc 10 68 0
	movl	%ebp, %ecx	# D.5699, tmp133
	.loc 10 67 0
	movl	%ebp, 132(%edi)	# D.5699, array_4(D)->bucket_bit
	.loc 10 68 0
	sall	%cl, %ebx	# tmp133, D.5699
	.loc 10 59 0
	cmpl	%ebx, 52(%esp)	# D.5699, size
	movl	%eax, 140(%edi)	# tmp114, array_4(D)->bucket_mac
	.loc 10 68 0
	movl	%ebx, 136(%edi)	# D.5699, array_4(D)->bucket_max
	.loc 10 59 0
	ja	.L186	#,
	movl	%edi, %esi	# array, array
.L187:
	.loc 10 71 0
	movl	144(%esi), %eax	# array_4(D)->size, tmp126
	cmpl	%eax, 52(%esp)	# tmp126, size
	jbe	.L182	#,
	.loc 10 72 0
	movl	52(%esp), %eax	# size, tmp134
	movl	%eax, 144(%esi)	# tmp134, array_4(D)->size
.L182:
	.loc 10 73 0
	addl	$28, %esp	#,
	.cfi_def_cfa_offset 20
	popl	%ebx	#
	.cfi_restore 3
	.cfi_def_cfa_offset 16
	popl	%esi	#
	.cfi_restore 6
	.cfi_def_cfa_offset 12
	popl	%edi	#
	.cfi_restore 7
	.cfi_def_cfa_offset 8
	popl	%ebp	#
	.cfi_restore 5
	.cfi_def_cfa_offset 4
	ret
	.cfi_endproc
.LFE49:
	.size	tommy_arrayof_grow, .-tommy_arrayof_grow
	.section	.text.unlikely
.LCOLDE18:
	.text
.LHOTE18:
	.section	.text.unlikely
.LCOLDB19:
	.text
.LHOTB19:
	.p2align 4,,15
	.globl	tommy_arrayof_memory_usage
	.type	tommy_arrayof_memory_usage, @function
tommy_arrayof_memory_usage:
.LFB50:
	.loc 10 76 0
	.cfi_startproc
.LVL320:
	.loc 10 76 0
	movl	4(%esp), %edx	# array, array
	.loc 10 77 0
	movl	128(%edx), %eax	# array_2(D)->element_size, array_2(D)->element_size
	imull	136(%edx), %eax	# array_2(D)->bucket_max, D.5708
	.loc 10 78 0
	ret
	.cfi_endproc
.LFE50:
	.size	tommy_arrayof_memory_usage, .-tommy_arrayof_memory_usage
	.section	.text.unlikely
.LCOLDE19:
	.text
.LHOTE19:
	.section	.text.unlikely
.LCOLDB20:
	.text
.LHOTB20:
	.p2align 4,,15
	.globl	tommy_arrayblk_init
	.type	tommy_arrayblk_init, @function
tommy_arrayblk_init:
.LFB56:
	.file 11 "tommyarrayblk.c"
	.loc 11 36 0
	.cfi_startproc
.LVL321:
	pushl	%edi	#
	.cfi_def_cfa_offset 8
	.cfi_offset 7, -8
	pushl	%ebx	#
	.cfi_def_cfa_offset 12
	.cfi_offset 3, -12
	subl	$16, %esp	#,
	.cfi_def_cfa_offset 28
	.loc 11 36 0
	movl	28(%esp), %ebx	# array, array
.LVL322:
.LBB385:
.LBB386:
	.loc 9 38 0
	movl	$6, 128(%ebx)	#, MEM[(struct tommy_array *)array_1(D)].bucket_bit
	.loc 9 39 0
	movl	$64, 132(%ebx)	#, MEM[(struct tommy_array *)array_1(D)].bucket_max
	.loc 9 40 0
	pushl	$256	#
	.cfi_def_cfa_offset 32
	call	malloc	#
.LVL323:
	movl	%eax, %edx	#, tmp85
	movl	%eax, (%ebx)	# tmp85, MEM[(struct tommy_array *)array_1(D)].bucket
	.loc 9 43 0
	movl	$64, %ecx	#, tmp88
	xorl	%eax, %eax	# tmp87
	movl	%edx, %edi	# tmp85, D.5714
	.loc 9 45 0
	movl	$1, 136(%ebx)	#, MEM[(struct tommy_array *)array_1(D)].bucket_mac
	.loc 9 43 0
	rep stosl
	.loc 9 46 0
	movl	$0, 140(%ebx)	#, MEM[(struct tommy_array *)array_1(D)].size
.LBE386:
.LBE385:
	.loc 11 39 0
	movl	$0, 144(%ebx)	#, array_1(D)->size
	.loc 11 40 0
	addl	$20, %esp	#,
	.cfi_def_cfa_offset 12
	popl	%ebx	#
	.cfi_restore 3
	.cfi_def_cfa_offset 8
.LVL324:
	popl	%edi	#
	.cfi_restore 7
	.cfi_def_cfa_offset 4
	ret
	.cfi_endproc
.LFE56:
	.size	tommy_arrayblk_init, .-tommy_arrayblk_init
	.section	.text.unlikely
.LCOLDE20:
	.text
.LHOTE20:
	.section	.text.unlikely
.LCOLDB21:
	.text
.LHOTB21:
	.p2align 4,,15
	.globl	tommy_arrayblk_done
	.type	tommy_arrayblk_done, @function
tommy_arrayblk_done:
.LFB57:
	.loc 11 43 0
	.cfi_startproc
.LVL325:
	pushl	%edi	#
	.cfi_def_cfa_offset 8
	.cfi_offset 7, -8
	pushl	%esi	#
	.cfi_def_cfa_offset 12
	.cfi_offset 6, -12
.LBB395:
.LBB396:
.LBB397:
.LBB398:
	.loc 4 108 0
	movl	$1, %edi	#, tmp112
.LBE398:
.LBE397:
.LBE396:
.LBE395:
	.loc 11 43 0
	pushl	%ebx	#
	.cfi_def_cfa_offset 16
	.cfi_offset 3, -16
	.loc 11 43 0
	movl	16(%esp), %esi	# array, array
.LVL326:
	.loc 11 46 0
	xorl	%ebx, %ebx	# i
	movl	140(%esi), %edx	# MEM[(unsigned int *)array_4(D) + 140B],
	testl	%edx, %edx	#
	jne	.L203	#,
	jmp	.L199	#
.LVL327:
	.p2align 4,,10
	.p2align 3
.L197:
.LBB407:
.LBB405:
.LBB403:
.LBB401:
.LBB399:
.LBB400:
	.loc 6 316 0
	bsrl	%ebx, %ecx	# i, D.5732
.LVL328:
.LBE400:
.LBE399:
	.loc 4 108 0
	movl	%edi, %eax	# tmp112, D.5732
	movl	%ebx, %edx	# i, pos
	sall	%cl, %eax	# D.5732, D.5732
	subl	%eax, %edx	# D.5732, pos
	.loc 4 110 0
	movl	-20(%esi,%ecx,4), %eax	# MEM[(struct tommy_array *)array_4(D)].bucket, tmp111
	leal	(%eax,%edx,4), %eax	#, D.5731
.LVL329:
.L198:
.LBE401:
.LBE403:
.LBE405:
.LBE407:
	.loc 11 47 0
	subl	$12, %esp	#,
	.cfi_def_cfa_offset 28
	pushl	(%eax)	# *_32
	.cfi_def_cfa_offset 32
	.loc 11 46 0
	addl	$1, %ebx	#, i
.LVL330:
	.loc 11 47 0
	call	free	#
.LVL331:
	.loc 11 46 0
	addl	$16, %esp	#,
	.cfi_def_cfa_offset 16
	cmpl	%ebx, 140(%esi)	# i, MEM[(unsigned int *)array_4(D) + 140B]
	jbe	.L199	#,
.LVL332:
.L203:
.LBB408:
.LBB406:
.LBB404:
.LBB402:
	.loc 4 100 0
	cmpl	$63, %ebx	#, i
	ja	.L197	#,
.LVL333:
	.loc 4 101 0
	movl	(%esi), %eax	# MEM[(struct tommy_array *)array_4(D)].bucket, MEM[(struct tommy_array *)array_4(D)].bucket
	leal	(%eax,%ebx,4), %eax	#, D.5731
	jmp	.L198	#
.LVL334:
	.p2align 4,,10
	.p2align 3
.L199:
.LBE402:
.LBE404:
.LBE406:
.LBE408:
.LBB409:
.LBB410:
	.loc 9 52 0
	movl	136(%esi), %eax	# MEM[(struct tommy_array *)array_4(D)].bucket_mac,
	xorl	%ebx, %ebx	# i
	testl	%eax, %eax	#
	je	.L193	#,
.LVL335:
	.p2align 4,,10
	.p2align 3
.L202:
	.loc 9 53 0
	subl	$12, %esp	#,
	.cfi_def_cfa_offset 28
	pushl	(%esi,%ebx,4)	# MEM[base: array_4(D), index: i_42, step: 4, offset: 0B]
	.cfi_def_cfa_offset 32
	.loc 9 52 0
	addl	$1, %ebx	#, i
.LVL336:
	.loc 9 53 0
	call	free	#
.LVL337:
	.loc 9 52 0
	addl	$16, %esp	#,
	.cfi_def_cfa_offset 16
	cmpl	136(%esi), %ebx	# MEM[(struct tommy_array *)array_4(D)].bucket_mac, i
	jb	.L202	#,
.LVL338:
.L193:
.LBE410:
.LBE409:
	.loc 11 50 0
	popl	%ebx	#
	.cfi_restore 3
	.cfi_def_cfa_offset 12
	popl	%esi	#
	.cfi_restore 6
	.cfi_def_cfa_offset 8
.LVL339:
	popl	%edi	#
	.cfi_restore 7
	.cfi_def_cfa_offset 4
	ret
	.cfi_endproc
.LFE57:
	.size	tommy_arrayblk_done, .-tommy_arrayblk_done
	.section	.text.unlikely
.LCOLDE21:
	.text
.LHOTE21:
	.section	.text.unlikely
.LCOLDB22:
	.text
.LHOTB22:
	.p2align 4,,15
	.globl	tommy_arrayblk_grow
	.type	tommy_arrayblk_grow, @function
tommy_arrayblk_grow:
.LFB58:
	.loc 11 53 0
	.cfi_startproc
.LVL340:
	pushl	%ebp	#
	.cfi_def_cfa_offset 8
	.cfi_offset 5, -8
	pushl	%edi	#
	.cfi_def_cfa_offset 12
	.cfi_offset 7, -12
	pushl	%esi	#
	.cfi_def_cfa_offset 16
	.cfi_offset 6, -16
	pushl	%ebx	#
	.cfi_def_cfa_offset 20
	.cfi_offset 3, -20
	subl	$28, %esp	#,
	.cfi_def_cfa_offset 48
	.loc 11 53 0
	movl	48(%esp), %esi	# array, array
	.loc 11 54 0
	movl	52(%esp), %eax	# size, tmp160
	movl	140(%esi), %ebx	# MEM[(unsigned int *)array_8(D) + 140B], block_mac
	leal	65535(%eax), %edi	#, D.5759
	shrl	$16, %edi	#, block_max
.LVL341:
	.loc 11 57 0
	cmpl	%ebx, %edi	# block_mac, block_max
	ja	.L208	#,
.LVL342:
.L217:
	.loc 11 75 0
	movl	144(%esi), %eax	# array_8(D)->size, tmp161
	cmpl	%eax, 52(%esp)	# tmp161, size
	jbe	.L207	#,
	.loc 11 76 0
	movl	52(%esp), %eax	# size, tmp174
	movl	%eax, 144(%esi)	# tmp174, array_8(D)->size
.L207:
	.loc 11 77 0
	addl	$28, %esp	#,
	.cfi_remember_state
	.cfi_def_cfa_offset 20
	popl	%ebx	#
	.cfi_restore 3
	.cfi_def_cfa_offset 16
	popl	%esi	#
	.cfi_restore 6
	.cfi_def_cfa_offset 12
	popl	%edi	#
	.cfi_restore 7
	.cfi_def_cfa_offset 8
.LVL343:
	popl	%ebp	#
	.cfi_restore 5
	.cfi_def_cfa_offset 4
	ret
.LVL344:
	.p2align 4,,10
	.p2align 3
.L208:
	.cfi_restore_state
.LBB420:
.LBB421:
	.loc 9 58 0
	movl	132(%esi), %edx	# MEM[(struct tommy_array *)array_8(D)].bucket_max, D.5759
	cmpl	%edx, %edi	# D.5759, block_max
	jbe	.L211	#,
	movl	136(%esi), %eax	# MEM[(struct tommy_array *)array_8(D)].bucket_mac, D.5759
	movl	128(%esi), %ecx	# MEM[(struct tommy_array *)array_8(D)].bucket_bit, D.5759
	.loc 9 67 0
	movl	%esi, 48(%esp)	# array, array
.LVL345:
	movl	%ebx, 12(%esp)	# block_mac, %sfp
	movl	%edx, %ebx	# D.5759, D.5759
	movl	%eax, %ebp	# D.5759, D.5758
	addl	$1, %eax	#, D.5759
	subl	%ecx, %ebp	# D.5759, D.5758
	subl	%ecx, %eax	# D.5759, D.5759
	leal	(%esi,%ebp,4), %ebp	#, D.5763
	movl	%eax, 8(%esp)	# D.5759, %sfp
	movl	%ecx, %esi	# D.5759, D.5759
.LVL346:
	movl	%ebp, 4(%esp)	# D.5763, %sfp
	movl	48(%esp), %ebp	# array, array
.LVL347:
	.p2align 4,,10
	.p2align 3
.L212:
	.loc 9 60 0
	subl	$12, %esp	#,
	.cfi_def_cfa_offset 60
	sall	$2, %ebx	#, D.5759
	pushl	%ebx	# D.5759
	.cfi_def_cfa_offset 64
	call	malloc	#
.LVL348:
	movl	20(%esp), %edx	# %sfp, D.5763
	.loc 9 63 0
	addl	$12, %esp	#,
	.cfi_def_cfa_offset 52
	.loc 9 60 0
	movl	%eax, (%edx,%esi,4)	# tmp123, MEM[base: _77, index: _75, step: 4, offset: 0B]
	.loc 9 63 0
	pushl	%ebx	# D.5759
	.cfi_def_cfa_offset 56
	.loc 9 67 0
	movl	$1, %ebx	#, D.5759
	.loc 9 63 0
	pushl	$0	#
	.cfi_def_cfa_offset 60
	pushl	%eax	# tmp123
	.cfi_def_cfa_offset 64
	call	memset	#
.LVL349:
	movl	24(%esp), %eax	# %sfp, D.5759
	.loc 9 58 0
	addl	$16, %esp	#,
	.cfi_def_cfa_offset 48
	addl	%esi, %eax	# D.5759, tmp130
	.loc 9 66 0
	addl	$1, %esi	#, D.5759
	.loc 9 67 0
	movl	%esi, %ecx	# D.5759, tmp168
	movl	%eax, 136(%ebp)	# tmp130, MEM[(struct tommy_array *)array_8(D)].bucket_mac
	.loc 9 66 0
	movl	%esi, 128(%ebp)	# D.5759, MEM[(struct tommy_array *)array_8(D)].bucket_bit
	.loc 9 67 0
	sall	%cl, %ebx	# tmp168, D.5759
	.loc 9 58 0
	cmpl	%ebx, %edi	# D.5759, block_max
	.loc 9 67 0
	movl	%ebx, 132(%ebp)	# D.5759, MEM[(struct tommy_array *)array_8(D)].bucket_max
	.loc 9 58 0
	ja	.L212	#,
	movl	12(%esp), %ebx	# %sfp, block_mac
	movl	%ebp, %esi	# array, array
.LVL350:
.L211:
	leal	0(,%ebx,4), %eax	#, ivtmp.259
	.loc 9 71 0
	movl	%edi, 140(%esi)	# block_max, MEM[(struct tommy_array *)array_8(D)].size
.LVL351:
	movl	%esi, 48(%esp)	# array, array
	movl	%eax, %ebp	# ivtmp.259, ivtmp.259
	jmp	.L216	#
.LVL352:
	.p2align 4,,10
	.p2align 3
.L214:
.LBE421:
.LBE420:
.LBB422:
.LBB423:
.LBB424:
.LBB425:
.LBB426:
.LBB427:
.LBB428:
	.loc 6 316 0
	bsrl	%ebx, %ecx	# block_mac, D.5761
.LVL353:
.LBE428:
.LBE427:
	.loc 4 108 0
	movl	$1, %eax	#, D.5761
	movl	%ebx, %edx	# block_mac, pos
	sall	%cl, %eax	# D.5761, D.5761
.LBE426:
.LBE425:
.LBE424:
.LBE423:
	.loc 11 71 0
	addl	$1, %ebx	#, block_mac
.LVL354:
	addl	$4, %ebp	#, ivtmp.259
.LBB445:
.LBB439:
.LBB434:
.LBB429:
	.loc 4 108 0
	subl	%eax, %edx	# D.5761, pos
.LVL355:
.LBE429:
.LBE434:
.LBE439:
.LBE445:
.LBE422:
	.loc 11 62 0
	cmpl	%edi, %ebx	# block_max, block_mac
.LBB451:
.LBB446:
.LBB440:
.LBB435:
.LBB430:
	.loc 4 108 0
	movl	%edx, %eax	# pos, pos
	.loc 4 110 0
	movl	48(%esp), %edx	# array, tmp173
	movl	-20(%edx,%ecx,4), %ecx	# MEM[(struct tommy_array *)array_8(D)].bucket, tmp143
.LVL356:
	leal	(%ecx,%eax,4), %eax	#, D.5762
.LBE430:
.LBE435:
	.loc 4 120 0
	movl	%esi, (%eax)	# ptr, *_46
.LBE440:
.LBE446:
.LBE451:
	.loc 11 62 0
	je	.L221	#,
.LVL357:
.L216:
.LBB452:
	.loc 11 63 0
	subl	$12, %esp	#,
	.cfi_def_cfa_offset 60
	pushl	$262144	#
	.cfi_def_cfa_offset 64
	call	malloc	#
.LVL358:
	.loc 11 66 0
	addl	$12, %esp	#,
	.cfi_def_cfa_offset 52
	.loc 11 63 0
	movl	%eax, %esi	#, ptr
.LVL359:
	.loc 11 66 0
	pushl	$262144	#
	.cfi_def_cfa_offset 56
	pushl	$0	#
	.cfi_def_cfa_offset 60
	pushl	%eax	# ptr
	.cfi_def_cfa_offset 64
	call	memset	#
.LVL360:
.LBB447:
.LBB441:
.LBB436:
.LBB431:
	.loc 4 97 0
	addl	$16, %esp	#,
	.cfi_def_cfa_offset 48
	cmpl	%edi, %ebx	# block_max, block_mac
	je	.L222	#,
	.loc 4 100 0
	cmpl	$63, %ebx	#, block_mac
	ja	.L214	#,
	.loc 4 101 0
	movl	48(%esp), %ecx	# array, tmp169
.LBE431:
.LBE436:
.LBE441:
.LBE447:
	.loc 11 71 0
	addl	$1, %ebx	#, block_mac
.LVL361:
.LBB448:
.LBB442:
.LBB437:
.LBB432:
	.loc 4 101 0
	movl	(%ecx), %eax	# MEM[(struct tommy_array *)array_8(D)].bucket, D.5762
	addl	%ebp, %eax	# ivtmp.259, D.5762
	addl	$4, %ebp	#, ivtmp.259
.LBE432:
.LBE437:
.LBE442:
.LBE448:
.LBE452:
	.loc 11 62 0
	cmpl	%edi, %ebx	# block_max, block_mac
.LBB453:
.LBB449:
.LBB443:
	.loc 4 120 0
	movl	%esi, (%eax)	# ptr, *_46
.LBE443:
.LBE449:
.LBE453:
	.loc 11 62 0
	jne	.L216	#,
.LVL362:
.L221:
	movl	48(%esp), %esi	# array, array
.LVL363:
	jmp	.L217	#
.LVL364:
.L222:
.LBB454:
.LBB450:
.LBB444:
.LBB438:
.LBB433:
	call	tommy_array_ref.part.11	#
.LVL365:
.LBE433:
.LBE438:
.LBE444:
.LBE450:
.LBE454:
	.cfi_endproc
.LFE58:
	.size	tommy_arrayblk_grow, .-tommy_arrayblk_grow
	.section	.text.unlikely
.LCOLDE22:
	.text
.LHOTE22:
	.section	.text.unlikely
.LCOLDB23:
	.text
.LHOTB23:
	.p2align 4,,15
	.globl	tommy_arrayblk_memory_usage
	.type	tommy_arrayblk_memory_usage, @function
tommy_arrayblk_memory_usage:
.LFB59:
	.loc 11 80 0
	.cfi_startproc
.LVL366:
	.loc 11 80 0
	movl	4(%esp), %edx	# array, array
.LVL367:
	.loc 11 81 0
	movl	140(%edx), %eax	# MEM[(unsigned int *)array_1(D) + 140B], D.5770
.LBB455:
.LBB456:
	.loc 9 76 0
	movl	132(%edx), %edx	# MEM[(struct tommy_array *)array_1(D)].bucket_max, MEM[(struct tommy_array *)array_1(D)].bucket_max
.LBE456:
.LBE455:
	.loc 11 81 0
	sall	$18, %eax	#, D.5770
	leal	(%eax,%edx,4), %eax	#, D.5771
	.loc 11 82 0
	ret
	.cfi_endproc
.LFE59:
	.size	tommy_arrayblk_memory_usage, .-tommy_arrayblk_memory_usage
	.section	.text.unlikely
.LCOLDE23:
	.text
.LHOTE23:
	.section	.text.unlikely
.LCOLDB24:
	.text
.LHOTB24:
	.p2align 4,,15
	.globl	tommy_arrayblkof_init
	.type	tommy_arrayblkof_init, @function
tommy_arrayblkof_init:
.LFB62:
	.file 12 "tommyarrayblkof.c"
	.loc 12 36 0
	.cfi_startproc
.LVL368:
	pushl	%edi	#
	.cfi_def_cfa_offset 8
	.cfi_offset 7, -8
	pushl	%ebx	#
	.cfi_def_cfa_offset 12
	.cfi_offset 3, -12
	subl	$16, %esp	#,
	.cfi_def_cfa_offset 28
	.loc 12 36 0
	movl	28(%esp), %ebx	# array, array
.LVL369:
.LBB459:
.LBB460:
	.loc 9 38 0
	movl	$6, 128(%ebx)	#, MEM[(struct tommy_array *)array_1(D)].bucket_bit
	.loc 9 39 0
	movl	$64, 132(%ebx)	#, MEM[(struct tommy_array *)array_1(D)].bucket_max
	.loc 9 40 0
	pushl	$256	#
	.cfi_def_cfa_offset 32
	call	malloc	#
.LVL370:
	movl	%eax, %edx	#, tmp86
	movl	%eax, (%ebx)	# tmp86, MEM[(struct tommy_array *)array_1(D)].bucket
	.loc 9 43 0
	movl	$64, %ecx	#, tmp89
	xorl	%eax, %eax	# tmp88
	movl	%edx, %edi	# tmp86, D.5777
	.loc 9 45 0
	movl	$1, 136(%ebx)	#, MEM[(struct tommy_array *)array_1(D)].bucket_mac
	.loc 9 43 0
	rep stosl
.LBE460:
.LBE459:
	.loc 12 38 0
	movl	36(%esp), %eax	# element_size, element_size
.LBB462:
.LBB461:
	.loc 9 46 0
	movl	$0, 140(%ebx)	#, MEM[(struct tommy_array *)array_1(D)].size
.LBE461:
.LBE462:
	.loc 12 39 0
	movl	$0, 148(%ebx)	#, array_1(D)->size
	.loc 12 38 0
	movl	%eax, 144(%ebx)	# element_size, array_1(D)->element_size
	.loc 12 40 0
	addl	$20, %esp	#,
	.cfi_def_cfa_offset 12
	popl	%ebx	#
	.cfi_restore 3
	.cfi_def_cfa_offset 8
.LVL371:
	popl	%edi	#
	.cfi_restore 7
	.cfi_def_cfa_offset 4
	ret
	.cfi_endproc
.LFE62:
	.size	tommy_arrayblkof_init, .-tommy_arrayblkof_init
	.section	.text.unlikely
.LCOLDE24:
	.text
.LHOTE24:
	.section	.text.unlikely
.LCOLDB25:
	.text
.LHOTB25:
	.p2align 4,,15
	.globl	tommy_arrayblkof_done
	.type	tommy_arrayblkof_done, @function
tommy_arrayblkof_done:
.LFB63:
	.loc 12 43 0
	.cfi_startproc
.LVL372:
	pushl	%edi	#
	.cfi_def_cfa_offset 8
	.cfi_offset 7, -8
	pushl	%esi	#
	.cfi_def_cfa_offset 12
	.cfi_offset 6, -12
.LBB471:
.LBB472:
.LBB473:
.LBB474:
	.loc 4 108 0
	movl	$1, %edi	#, tmp112
.LBE474:
.LBE473:
.LBE472:
.LBE471:
	.loc 12 43 0
	pushl	%ebx	#
	.cfi_def_cfa_offset 16
	.cfi_offset 3, -16
	.loc 12 43 0
	movl	16(%esp), %esi	# array, array
.LVL373:
	.loc 12 46 0
	xorl	%ebx, %ebx	# i
	movl	140(%esi), %edx	# MEM[(unsigned int *)array_4(D) + 140B],
	testl	%edx, %edx	#
	jne	.L236	#,
	jmp	.L232	#
.LVL374:
	.p2align 4,,10
	.p2align 3
.L230:
.LBB483:
.LBB481:
.LBB479:
.LBB477:
.LBB475:
.LBB476:
	.loc 6 316 0
	bsrl	%ebx, %ecx	# i, D.5795
.LVL375:
.LBE476:
.LBE475:
	.loc 4 108 0
	movl	%edi, %eax	# tmp112, D.5795
	movl	%ebx, %edx	# i, pos
	sall	%cl, %eax	# D.5795, D.5795
	subl	%eax, %edx	# D.5795, pos
	.loc 4 110 0
	movl	-20(%esi,%ecx,4), %eax	# MEM[(struct tommy_array *)array_4(D)].bucket, tmp111
	leal	(%eax,%edx,4), %eax	#, D.5794
.LVL376:
.L231:
.LBE477:
.LBE479:
.LBE481:
.LBE483:
	.loc 12 47 0
	subl	$12, %esp	#,
	.cfi_def_cfa_offset 28
	pushl	(%eax)	# *_32
	.cfi_def_cfa_offset 32
	.loc 12 46 0
	addl	$1, %ebx	#, i
.LVL377:
	.loc 12 47 0
	call	free	#
.LVL378:
	.loc 12 46 0
	addl	$16, %esp	#,
	.cfi_def_cfa_offset 16
	cmpl	%ebx, 140(%esi)	# i, MEM[(unsigned int *)array_4(D) + 140B]
	jbe	.L232	#,
.LVL379:
.L236:
.LBB484:
.LBB482:
.LBB480:
.LBB478:
	.loc 4 100 0
	cmpl	$63, %ebx	#, i
	ja	.L230	#,
.LVL380:
	.loc 4 101 0
	movl	(%esi), %eax	# MEM[(struct tommy_array *)array_4(D)].bucket, MEM[(struct tommy_array *)array_4(D)].bucket
	leal	(%eax,%ebx,4), %eax	#, D.5794
	jmp	.L231	#
.LVL381:
	.p2align 4,,10
	.p2align 3
.L232:
.LBE478:
.LBE480:
.LBE482:
.LBE484:
.LBB485:
.LBB486:
	.loc 9 52 0
	movl	136(%esi), %eax	# MEM[(struct tommy_array *)array_4(D)].bucket_mac,
	xorl	%ebx, %ebx	# i
	testl	%eax, %eax	#
	je	.L226	#,
.LVL382:
	.p2align 4,,10
	.p2align 3
.L235:
	.loc 9 53 0
	subl	$12, %esp	#,
	.cfi_def_cfa_offset 28
	pushl	(%esi,%ebx,4)	# MEM[base: array_4(D), index: i_42, step: 4, offset: 0B]
	.cfi_def_cfa_offset 32
	.loc 9 52 0
	addl	$1, %ebx	#, i
.LVL383:
	.loc 9 53 0
	call	free	#
.LVL384:
	.loc 9 52 0
	addl	$16, %esp	#,
	.cfi_def_cfa_offset 16
	cmpl	136(%esi), %ebx	# MEM[(struct tommy_array *)array_4(D)].bucket_mac, i
	jb	.L235	#,
.LVL385:
.L226:
.LBE486:
.LBE485:
	.loc 12 50 0
	popl	%ebx	#
	.cfi_restore 3
	.cfi_def_cfa_offset 12
	popl	%esi	#
	.cfi_restore 6
	.cfi_def_cfa_offset 8
.LVL386:
	popl	%edi	#
	.cfi_restore 7
	.cfi_def_cfa_offset 4
	ret
	.cfi_endproc
.LFE63:
	.size	tommy_arrayblkof_done, .-tommy_arrayblkof_done
	.section	.text.unlikely
.LCOLDE25:
	.text
.LHOTE25:
	.section	.text.unlikely
.LCOLDB26:
	.text
.LHOTB26:
	.p2align 4,,15
	.globl	tommy_arrayblkof_grow
	.type	tommy_arrayblkof_grow, @function
tommy_arrayblkof_grow:
.LFB64:
	.loc 12 53 0
	.cfi_startproc
.LVL387:
	pushl	%ebp	#
	.cfi_def_cfa_offset 8
	.cfi_offset 5, -8
	pushl	%edi	#
	.cfi_def_cfa_offset 12
	.cfi_offset 7, -12
	pushl	%esi	#
	.cfi_def_cfa_offset 16
	.cfi_offset 6, -16
	pushl	%ebx	#
	.cfi_def_cfa_offset 20
	.cfi_offset 3, -20
	subl	$28, %esp	#,
	.cfi_def_cfa_offset 48
	.loc 12 53 0
	movl	48(%esp), %esi	# array, array
	.loc 12 54 0
	movl	52(%esp), %eax	# size, tmp162
	movl	140(%esi), %ebx	# MEM[(unsigned int *)array_8(D) + 140B], block_mac
	addl	$65535, %eax	#, D.5822
	shrl	$16, %eax	#, block_max
	movl	%eax, 4(%esp)	# block_max, %sfp
.LVL388:
	.loc 12 57 0
	cmpl	%ebx, %eax	# block_mac, block_max
	ja	.L241	#,
.LVL389:
.L250:
	.loc 12 75 0
	movl	148(%esi), %eax	# array_8(D)->size, tmp165
	cmpl	%eax, 52(%esp)	# tmp165, size
	jbe	.L240	#,
	.loc 12 76 0
	movl	52(%esp), %eax	# size, tmp181
	movl	%eax, 148(%esi)	# tmp181, array_8(D)->size
.L240:
	.loc 12 77 0
	addl	$28, %esp	#,
	.cfi_remember_state
	.cfi_def_cfa_offset 20
	popl	%ebx	#
	.cfi_restore 3
	.cfi_def_cfa_offset 16
	popl	%esi	#
	.cfi_restore 6
	.cfi_def_cfa_offset 12
	popl	%edi	#
	.cfi_restore 7
	.cfi_def_cfa_offset 8
	popl	%ebp	#
	.cfi_restore 5
	.cfi_def_cfa_offset 4
	ret
.LVL390:
	.p2align 4,,10
	.p2align 3
.L241:
	.cfi_restore_state
.LBB496:
.LBB497:
	.loc 9 58 0
	movl	132(%esi), %ebp	# MEM[(struct tommy_array *)array_8(D)].bucket_max, D.5822
	cmpl	%ebp, 4(%esp)	# D.5822, %sfp
	jbe	.L244	#,
	movl	136(%esi), %eax	# MEM[(struct tommy_array *)array_8(D)].bucket_mac, D.5822
.LVL391:
	movl	128(%esi), %ecx	# MEM[(struct tommy_array *)array_8(D)].bucket_bit, D.5822
	.loc 9 67 0
	movl	%ebx, 12(%esp)	# block_mac, %sfp
	movl	%esi, %ebx	# array, array
	movl	%eax, %edx	# D.5822, D.5823
	addl	$1, %eax	#, D.5822
	.loc 9 58 0
	movl	%ecx, %edi	# D.5822, D.5822
	subl	%ecx, %edx	# D.5822, D.5823
	subl	%ecx, %eax	# D.5822, D.5822
	leal	(%esi,%edx,4), %edx	#, D.5821
	.loc 9 67 0
	movl	%eax, %esi	# D.5822, D.5822
.LVL392:
	movl	%edx, 8(%esp)	# D.5821, %sfp
.LVL393:
	.p2align 4,,10
	.p2align 3
.L245:
	.loc 9 60 0
	subl	$12, %esp	#,
	.cfi_def_cfa_offset 60
	sall	$2, %ebp	#, D.5822
	pushl	%ebp	# D.5822
	.cfi_def_cfa_offset 64
	call	malloc	#
.LVL394:
	movl	24(%esp), %edx	# %sfp, D.5821
	.loc 9 63 0
	addl	$12, %esp	#,
	.cfi_def_cfa_offset 52
	.loc 9 60 0
	movl	%eax, (%edx,%edi,4)	# tmp125, MEM[base: _3, index: _80, step: 4, offset: 0B]
	.loc 9 63 0
	pushl	%ebp	# D.5822
	.cfi_def_cfa_offset 56
	.loc 9 67 0
	movl	$1, %ebp	#, D.5822
	.loc 9 63 0
	pushl	$0	#
	.cfi_def_cfa_offset 60
	pushl	%eax	# tmp125
	.cfi_def_cfa_offset 64
	call	memset	#
.LVL395:
	leal	(%esi,%edi), %eax	#, tmp132
	.loc 9 66 0
	addl	$1, %edi	#, D.5822
	.loc 9 58 0
	addl	$16, %esp	#,
	.cfi_def_cfa_offset 48
	.loc 9 67 0
	movl	%edi, %ecx	# D.5822, tmp172
	.loc 9 66 0
	movl	%edi, 128(%ebx)	# D.5822, MEM[(struct tommy_array *)array_8(D)].bucket_bit
	.loc 9 67 0
	sall	%cl, %ebp	# tmp172, D.5822
	.loc 9 58 0
	cmpl	%ebp, 4(%esp)	# D.5822, %sfp
	movl	%eax, 136(%ebx)	# tmp132, MEM[(struct tommy_array *)array_8(D)].bucket_mac
	.loc 9 67 0
	movl	%ebp, 132(%ebx)	# D.5822, MEM[(struct tommy_array *)array_8(D)].bucket_max
	.loc 9 58 0
	ja	.L245	#,
	movl	%ebx, %esi	# array, array
	movl	12(%esp), %ebx	# %sfp, block_mac
.LVL396:
.L244:
	.loc 9 71 0
	movl	4(%esp), %eax	# %sfp, block_max
	movl	144(%esi), %ebp	# array_8(D)->element_size, D.5822
	movl	%esi, 48(%esp)	# array, array
	movl	%eax, 140(%esi)	# block_max, MEM[(struct tommy_array *)array_8(D)].size
.LVL397:
	leal	0(,%ebx,4), %eax	#, ivtmp.286
	sall	$16, %ebp	#, D.5822
	movl	%eax, %edi	# ivtmp.286, ivtmp.286
	jmp	.L249	#
.LVL398:
	.p2align 4,,10
	.p2align 3
.L247:
.LBE497:
.LBE496:
.LBB498:
.LBB499:
.LBB500:
.LBB501:
.LBB502:
.LBB503:
.LBB504:
	.loc 6 316 0
	bsrl	%ebx, %ecx	# block_mac, D.5825
.LVL399:
.LBE504:
.LBE503:
	.loc 4 108 0
	movl	$1, %eax	#, D.5825
	movl	%ebx, %edx	# block_mac, pos
	sall	%cl, %eax	# D.5825, D.5825
.LBE502:
.LBE501:
.LBE500:
.LBE499:
	.loc 12 71 0
	addl	$1, %ebx	#, block_mac
.LVL400:
	addl	$4, %edi	#, ivtmp.286
.LBB521:
.LBB515:
.LBB510:
.LBB505:
	.loc 4 108 0
	subl	%eax, %edx	# D.5825, pos
.LVL401:
.LBE505:
.LBE510:
.LBE515:
.LBE521:
.LBE498:
	.loc 12 62 0
	cmpl	4(%esp), %ebx	# %sfp, block_mac
.LBB527:
.LBB522:
.LBB516:
.LBB511:
.LBB506:
	.loc 4 108 0
	movl	%edx, %eax	# pos, pos
	.loc 4 110 0
	movl	48(%esp), %edx	# array, tmp179
	movl	-20(%edx,%ecx,4), %ecx	# MEM[(struct tommy_array *)array_8(D)].bucket, tmp145
.LVL402:
	leal	(%ecx,%eax,4), %eax	#, D.5826
.LBE506:
.LBE511:
	.loc 4 120 0
	movl	%esi, (%eax)	# ptr, *_48
.LBE516:
.LBE522:
.LBE527:
	.loc 12 62 0
	je	.L254	#,
.LVL403:
.L249:
.LBB528:
	.loc 12 63 0
	subl	$12, %esp	#,
	.cfi_def_cfa_offset 60
	pushl	%ebp	# D.5822
	.cfi_def_cfa_offset 64
	call	malloc	#
.LVL404:
	.loc 12 66 0
	addl	$12, %esp	#,
	.cfi_def_cfa_offset 52
	.loc 12 63 0
	movl	%eax, %esi	#, ptr
.LVL405:
	.loc 12 66 0
	pushl	%ebp	# D.5822
	.cfi_def_cfa_offset 56
	pushl	$0	#
	.cfi_def_cfa_offset 60
	pushl	%eax	# ptr
	.cfi_def_cfa_offset 64
	call	memset	#
.LVL406:
.LBB523:
.LBB517:
.LBB512:
.LBB507:
	.loc 4 97 0
	addl	$16, %esp	#,
	.cfi_def_cfa_offset 48
	cmpl	4(%esp), %ebx	# %sfp, block_mac
	je	.L255	#,
	.loc 4 100 0
	cmpl	$63, %ebx	#, block_mac
	ja	.L247	#,
	.loc 4 101 0
	movl	48(%esp), %edx	# array, tmp175
.LBE507:
.LBE512:
.LBE517:
.LBE523:
	.loc 12 71 0
	addl	$1, %ebx	#, block_mac
.LVL407:
.LBB524:
.LBB518:
.LBB513:
.LBB508:
	.loc 4 101 0
	movl	(%edx), %eax	# MEM[(struct tommy_array *)array_8(D)].bucket, D.5826
	addl	%edi, %eax	# ivtmp.286, D.5826
	addl	$4, %edi	#, ivtmp.286
.LBE508:
.LBE513:
.LBE518:
.LBE524:
.LBE528:
	.loc 12 62 0
	cmpl	4(%esp), %ebx	# %sfp, block_mac
.LBB529:
.LBB525:
.LBB519:
	.loc 4 120 0
	movl	%esi, (%eax)	# ptr, *_48
.LBE519:
.LBE525:
.LBE529:
	.loc 12 62 0
	jne	.L249	#,
.LVL408:
.L254:
	movl	48(%esp), %esi	# array, array
.LVL409:
	jmp	.L250	#
.LVL410:
.L255:
.LBB530:
.LBB526:
.LBB520:
.LBB514:
.LBB509:
	call	tommy_array_ref.part.11	#
.LVL411:
.LBE509:
.LBE514:
.LBE520:
.LBE526:
.LBE530:
	.cfi_endproc
.LFE64:
	.size	tommy_arrayblkof_grow, .-tommy_arrayblkof_grow
	.section	.text.unlikely
.LCOLDE26:
	.text
.LHOTE26:
	.section	.text.unlikely
.LCOLDB27:
	.text
.LHOTB27:
	.p2align 4,,15
	.globl	tommy_arrayblkof_memory_usage
	.type	tommy_arrayblkof_memory_usage, @function
tommy_arrayblkof_memory_usage:
.LFB65:
	.loc 12 80 0
	.cfi_startproc
.LVL412:
	.loc 12 80 0
	movl	4(%esp), %edx	# array, array
.LVL413:
	movl	144(%edx), %eax	# array_1(D)->element_size, D.5833
	sall	$16, %eax	#, D.5833
	.loc 12 81 0
	imull	140(%edx), %eax	# MEM[(unsigned int *)array_1(D) + 140B], D.5833
.LBB531:
.LBB532:
	.loc 9 76 0
	movl	132(%edx), %edx	# MEM[(struct tommy_array *)array_1(D)].bucket_max, MEM[(struct tommy_array *)array_1(D)].bucket_max
.LBE532:
.LBE531:
	.loc 12 81 0
	leal	(%eax,%edx,4), %eax	#, D.5834
	.loc 12 82 0
	ret
	.cfi_endproc
.LFE65:
	.size	tommy_arrayblkof_memory_usage, .-tommy_arrayblkof_memory_usage
	.section	.text.unlikely
.LCOLDE27:
	.text
.LHOTE27:
	.section	.text.unlikely
.LCOLDB28:
	.text
.LHOTB28:
	.p2align 4,,15
	.globl	tommy_list_concat
	.type	tommy_list_concat, @function
tommy_list_concat:
.LFB84:
	.loc 3 32 0
	.cfi_startproc
.LVL414:
	pushl	%ebx	#
	.cfi_def_cfa_offset 8
	.cfi_offset 3, -8
	movl	12(%esp), %eax	# second, second
	movl	(%eax), %eax	# *second_3(D), D.5837
.LVL415:
	.loc 3 37 0
	testl	%eax, %eax	# D.5837
	je	.L257	#,
	movl	8(%esp), %ecx	# first, tmp89
	movl	(%ecx), %edx	# *first_5(D), D.5837
.LVL416:
	.loc 3 41 0
	testl	%edx, %edx	# D.5837
	je	.L264	#,
.LVL417:
.LBB533:
.LBB534:
	.loc 2 144 0
	movl	4(%edx), %ecx	# _6->prev, D.5839
.LBE534:
.LBE533:
	.loc 3 51 0
	movl	4(%eax), %ebx	# _4->prev, tmp91
	movl	%ebx, 4(%edx)	# tmp91, _6->prev
	.loc 3 52 0
	movl	%ecx, 4(%eax)	# D.5839, _4->prev
	.loc 3 55 0
	movl	%eax, (%ecx)	# D.5837, _12->next
.LVL418:
.L257:
	.loc 3 56 0
	popl	%ebx	#
	.cfi_remember_state
	.cfi_restore 3
	.cfi_def_cfa_offset 4
	ret
.LVL419:
	.p2align 4,,10
	.p2align 3
.L264:
	.cfi_restore_state
	.loc 3 42 0
	movl	%eax, (%ecx)	# D.5837, *first_5(D)
	.loc 3 56 0
	popl	%ebx	#
	.cfi_restore 3
	.cfi_def_cfa_offset 4
	ret
	.cfi_endproc
.LFE84:
	.size	tommy_list_concat, .-tommy_list_concat
	.section	.text.unlikely
.LCOLDE28:
	.text
.LHOTE28:
	.section	.text.unlikely
.LCOLDB29:
	.text
.LHOTB29:
	.p2align 4,,15
	.globl	tommy_list_sort
	.type	tommy_list_sort, @function
tommy_list_sort:
.LFB86:
	.loc 3 69 0
	.cfi_startproc
.LVL420:
	pushl	%ebx	#
	.cfi_def_cfa_offset 8
	.cfi_offset 3, -8
	subl	$24, %esp	#,
	.cfi_def_cfa_offset 32
	.loc 3 69 0
	movl	32(%esp), %ebx	# list, list
	movl	(%ebx), %eax	# *list_3(D), D.5842
.LVL421:
	.loc 3 73 0
	testl	%eax, %eax	# D.5842
	je	.L265	#,
.LVL422:
	.loc 3 79 0
	movl	%eax, 8(%esp)	# D.5842, chain.head
	.loc 3 80 0
	movl	4(%eax), %eax	# _4->prev, _4->prev
	.loc 3 82 0
	movl	36(%esp), %edx	# cmp,
	.loc 3 80 0
	movl	%eax, 12(%esp)	# _4->prev, chain.tail
	.loc 3 82 0
	leal	8(%esp), %eax	#, tmp91
	call	tommy_chain_mergesort	#
.LVL423:
	.loc 3 85 0
	movl	8(%esp), %eax	# chain.head, D.5844
.LVL424:
	movl	12(%esp), %edx	# chain.tail, D.5844
.LVL425:
.LBB535:
.LBB536:
	.loc 3 63 0
	movl	%edx, 4(%eax)	# D.5844, _11->prev
	.loc 3 64 0
	movl	$0, (%edx)	#, _10->next
	.loc 3 65 0
	movl	%eax, (%ebx)	# D.5844, *list_3(D)
.LVL426:
.L265:
.LBE536:
.LBE535:
	.loc 3 86 0
	addl	$24, %esp	#,
	.cfi_def_cfa_offset 8
	popl	%ebx	#
	.cfi_restore 3
	.cfi_def_cfa_offset 4
.LVL427:
	ret
	.cfi_endproc
.LFE86:
	.size	tommy_list_sort, .-tommy_list_sort
	.section	.text.unlikely
.LCOLDE29:
	.text
.LHOTE29:
	.section	.text.unlikely
.LCOLDB30:
	.text
.LHOTB30:
	.p2align 4,,15
	.globl	tommy_trie_init
	.type	tommy_trie_init, @function
tommy_trie_init:
.LFB89:
	.file 13 "tommytrie.c"
	.loc 13 78 0
	.cfi_startproc
.LVL428:
	pushl	%edi	#
	.cfi_def_cfa_offset 8
	.cfi_offset 7, -8
	.loc 13 78 0
	movl	8(%esp), %edx	# trie, trie
	xorl	%eax, %eax	# tmp87
	leal	4(%edx), %edi	#, tmp88
	movl	%edx, %ecx	# trie, trie
	movl	$0, (%edx)	#,* trie
.LVL429:
	movl	$0, 60(%edx)	#,
	andl	$-4, %edi	#, tmp88
	subl	%edi, %ecx	# tmp88, trie
	addl	$64, %ecx	#, tmp86
	shrl	$2, %ecx	#, tmp89
	rep stosl
	.loc 13 84 0
	movl	$0, 64(%edx)	#, trie_4(D)->count
	.loc 13 85 0
	movl	$0, 68(%edx)	#, trie_4(D)->node_count
	.loc 13 87 0
	movl	12(%esp), %eax	# alloc, alloc
	movl	%eax, 72(%edx)	# alloc, trie_4(D)->alloc
	.loc 13 88 0
	popl	%edi	#
	.cfi_restore 7
	.cfi_def_cfa_offset 4
	ret
	.cfi_endproc
.LFE89:
	.size	tommy_trie_init, .-tommy_trie_init
	.section	.text.unlikely
.LCOLDE30:
	.text
.LHOTE30:
	.section	.text.unlikely
.LCOLDB31:
	.text
.LHOTB31:
	.p2align 4,,15
	.globl	tommy_trie_insert
	.type	tommy_trie_insert, @function
tommy_trie_insert:
.LFB91:
	.loc 13 154 0
	.cfi_startproc
.LVL430:
	pushl	%ebp	#
	.cfi_def_cfa_offset 8
	.cfi_offset 5, -8
	pushl	%edi	#
	.cfi_def_cfa_offset 12
	.cfi_offset 7, -12
	pushl	%esi	#
	.cfi_def_cfa_offset 16
	.cfi_offset 6, -16
	pushl	%ebx	#
	.cfi_def_cfa_offset 20
	.cfi_offset 3, -20
	subl	$44, %esp	#,
	.cfi_def_cfa_offset 64
	.loc 13 157 0
	movl	68(%esp), %edi	# node, tmp170
	movl	72(%esp), %eax	# data, data
	.loc 13 160 0
	movl	64(%esp), %esi	# trie, tmp174
	.loc 13 157 0
	movl	%eax, 8(%edi)	# data, node_2(D)->data
	.loc 13 158 0
	movl	%edi, %eax	# tmp170, tmp171
	movl	76(%esp), %edi	# key, tmp172
	movl	%edi, 12(%eax)	# tmp172, node_2(D)->key
	.loc 13 160 0
	movl	%edi, %eax	# tmp172, D.5901
	shrl	$28, %eax	#, D.5901
	movl	(%esi,%eax,4), %ebp	# MEM[(struct tommy_trie_node * *)trie_8(D)].bucket, node
	leal	(%esi,%eax,4), %edi	#, let_ptr
.LVL431:
.LDL1:
.LBB549:
.LBB550:
	.loc 13 101 0
	testl	%ebp, %ebp	# node
	je	.L275	#,
	.loc 13 107 0
	testl	$1, %ebp	#, node
	movl	$28, %ecx	#, shift
	movl	76(%esp), %edx	# key, key
	jne	.L295	#,
	jmp	.L277	#
.LVL432:
	.p2align 4,,10
	.p2align 3
.L301:
	testl	$1, %ebp	#, node
	je	.L277	#,
.LVL433:
.L295:
	.loc 13 109 0
	movl	%edx, %eax	# key, D.5901
	subl	$1, %ebp	#, D.5903
	shrl	%cl, %eax	# shift, D.5901
	.loc 13 110 0
	subl	$4, %ecx	#, shift
.LVL434:
	.loc 13 109 0
	andl	$15, %eax	#, D.5901
.LVL435:
	leal	0(%ebp,%eax,4), %edi	#, let_ptr
.LVL436:
	movl	0(%ebp,%eax,4), %ebp	# MEM[(struct tommy_trie_node * *)_21].map, node
.LVL437:
	.loc 13 101 0
	testl	%ebp, %ebp	# node
	jne	.L301	#,
.LVL438:
.L275:
.LBB551:
.LBB552:
	.loc 2 155 0
	movl	68(%esp), %eax	# node, tmp176
	movl	%eax, 4(%eax)	# tmp177, MEM[(struct tommy_node *)node_2(D)].prev
	.loc 2 158 0
	movl	$0, (%eax)	#, MEM[(struct tommy_node *)node_2(D)].next
	.loc 2 160 0
	movl	%eax, (%edi)	# tmp179, MEM[(struct tommy_node * *)let_ptr_11]
.LBE552:
.LBE551:
.LBE550:
.LBE549:
	.loc 13 164 0
	movl	64(%esp), %eax	# trie, tmp203
	addl	$1, 64(%eax)	#, trie_8(D)->count
	.loc 13 165 0
	addl	$44, %esp	#,
	.cfi_remember_state
	.cfi_def_cfa_offset 20
	popl	%ebx	#
	.cfi_restore 3
	.cfi_def_cfa_offset 16
	popl	%esi	#
	.cfi_restore 6
	.cfi_def_cfa_offset 12
.LVL439:
	popl	%edi	#
	.cfi_restore 7
	.cfi_def_cfa_offset 8
	popl	%ebp	#
	.cfi_restore 5
	.cfi_def_cfa_offset 4
	ret
.LVL440:
	.p2align 4,,10
	.p2align 3
.L277:
	.cfi_restore_state
.LBB569:
.LBB566:
	.loc 13 117 0
	movl	12(%ebp), %eax	# node_154->key, tmp181
	cmpl	%eax, 76(%esp)	# tmp181, key
	je	.L307	#,
	movl	%ebp, 16(%esp)	# node, %sfp
	movl	%edi, 12(%esp)	# let_ptr, %sfp
	movl	64(%esp), %ebp	# trie, trie
.LVL441:
	jmp	.L282	#
.LVL442:
	.p2align 4,,10
	.p2align 3
.L309:
	movl	(%ebx), %eax	# _12->next, D.5902
.LVL443:
.L284:
.LBB553:
.LBB554:
	.loc 8 118 0
	movl	%eax, (%esi)	# D.5902, _32->free_block
	.loc 8 120 0
	addl	$1, 16(%esi)	#, _32->count
.LBE554:
.LBE553:
	.loc 13 126 0
	leal	1(%ebx), %eax	#, tmp147
	movl	12(%esp), %esi	# %sfp, let_ptr
	.loc 13 125 0
	addl	$1, 68(%ebp)	#, MEM[(unsigned int *)trie_8(D) + 68B]
	.loc 13 135 0
	movl	76(%esp), %edx	# key, D.5901
	.loc 13 126 0
	movl	%eax, (%esi)	# tmp147, *let_ptr_39
.LVL444:
	.loc 13 135 0
	shrl	%cl, %edx	# shift, D.5901
	.loc 13 134 0
	movl	16(%esp), %eax	# %sfp, node
	.loc 13 135 0
	andl	$15, %edx	#, j
	.loc 13 130 0
	movl	$0, (%ebx)	#, tree_125->map
.LVL445:
	movl	$0, 4(%ebx)	#, tree_125->map
.LVL446:
	movl	$0, 8(%ebx)	#, tree_125->map
.LVL447:
	movl	$0, 12(%ebx)	#, tree_125->map
.LVL448:
	movl	$0, 16(%ebx)	#, tree_125->map
.LVL449:
	.loc 13 134 0
	movl	12(%eax), %eax	# node_154->key, node_154->key
	.loc 13 130 0
	movl	$0, 20(%ebx)	#, tree_125->map
.LVL450:
	movl	$0, 24(%ebx)	#, tree_125->map
.LVL451:
	movl	$0, 28(%ebx)	#, tree_125->map
.LVL452:
	movl	$0, 32(%ebx)	#, tree_125->map
.LVL453:
	movl	$0, 36(%ebx)	#, tree_125->map
.LVL454:
	.loc 13 134 0
	movl	%eax, 12(%esp)	# node_154->key, %sfp
	shrl	%cl, %eax	# shift, D.5901
	.loc 13 130 0
	movl	$0, 40(%ebx)	#, tree_125->map
.LVL455:
	.loc 13 134 0
	andl	$15, %eax	#, i
	.loc 13 130 0
	movl	$0, 44(%ebx)	#, tree_125->map
.LVL456:
	movl	$0, 48(%ebx)	#, tree_125->map
.LVL457:
	.loc 13 138 0
	cmpl	%edx, %eax	# j, i
	.loc 13 130 0
	movl	$0, 52(%ebx)	#, tree_125->map
.LVL458:
	movl	$0, 56(%ebx)	#, tree_125->map
.LVL459:
	movl	$0, 60(%ebx)	#, tree_125->map
.LVL460:
	.loc 13 138 0
	jne	.L308	#,
.LVL461:
	.loc 13 148 0
	leal	(%ebx,%eax,4), %eax	#, let_ptr
.LVL462:
	.loc 13 149 0
	subl	$4, %ecx	#, shift
.LVL463:
	.loc 13 148 0
	movl	%eax, 12(%esp)	# let_ptr, %sfp
.LVL464:
.L282:
	.loc 13 124 0
	movl	72(%ebp), %esi	# MEM[(struct tommy_allocator * *)trie_8(D) + 72B], D.5906
.LVL465:
.LBB560:
.LBB558:
	.loc 8 86 0
	movl	(%esi), %ebx	# _32->free_block, D.5902
	testl	%ebx, %ebx	# D.5902
	jne	.L309	#,
	movl	%ecx, 28(%esp)	# shift, %sfp
.LVL466:
.LBB555:
	.loc 8 89 0
	subl	$12, %esp	#,
	.cfi_def_cfa_offset 76
	pushl	$4032	#
	.cfi_def_cfa_offset 80
	call	malloc	#
.LVL467:
	.loc 8 93 0
	movl	4(%esi), %edx	# _32->used_segment, _32->used_segment
	.loc 8 95 0
	leal	4(%eax), %edi	#, free_block
.LVL468:
	.loc 8 93 0
	movl	%edx, (%eax)	# _32->used_segment, segment_55->next
	.loc 8 94 0
	movl	%eax, 4(%esi)	# tmp139, _32->used_segment
	.loc 8 99 0
	xorl	%edx, %edx	# tmp141
	movl	12(%esi), %eax	# _32->align_size, D.5901
.LVL469:
	movl	%eax, 40(%esp)	# D.5901, %sfp
	movl	%eax, %ecx	# D.5901, D.5901
	movl	%edi, %eax	# free_block, tmp142
	divl	%ecx	# D.5901
.LVL470:
	.loc 8 100 0
	addl	$16, %esp	#,
	.cfi_def_cfa_offset 64
	.loc 8 88 0
	movl	$4032, 20(%esp)	#, %sfp
	.loc 8 100 0
	movl	28(%esp), %ecx	# %sfp, shift
	testl	%edx, %edx	# tmp141
	je	.L285	#,
	.loc 8 101 0
	movl	24(%esp), %eax	# %sfp, D.5901
	subl	%edx, %eax	# tmp141, D.5901
	addl	%eax, %edi	# D.5901, free_block
.LVL471:
	movl	$4032, %eax	#, D.5901
	subl	24(%esp), %eax	# %sfp, D.5901
	.loc 8 102 0
	addl	%edx, %eax	# tmp141, size
	movl	%eax, 20(%esp)	# size, %sfp
.LVL472:
.L285:
	.loc 8 106 0
	movl	8(%esi), %edx	# _32->block_size, D.5901
.LVL473:
	cmpl	%edx, 20(%esp)	# D.5901, %sfp
	jb	.L310	#,
	movl	%esi, 24(%esp)	# D.5906, %sfp
	movl	20(%esp), %eax	# %sfp, size
	jmp	.L297	#
.LVL474:
	.p2align 4,,10
	.p2align 3
.L290:
	movl	%edi, %ebx	# free_block, D.5902
.LBB556:
	.loc 8 111 0
	movl	%esi, %edi	# free_block, free_block
.LVL475:
.L297:
	.loc 8 112 0
	subl	%edx, %eax	# D.5901, size
.LVL476:
	.loc 8 108 0
	movl	%ebx, (%edi)	# D.5902, MEM[base: free_block_149, offset: 0B]
	.loc 8 111 0
	leal	(%edi,%edx), %esi	#, free_block
.LVL477:
.LBE556:
	.loc 8 106 0
	cmpl	%edx, %eax	# D.5901, size
	jae	.L290	#,
	movl	%ebx, %eax	# D.5902, D.5902
.LVL478:
	movl	24(%esp), %esi	# %sfp, D.5906
.LVL479:
	movl	%edi, %ebx	# free_block, tree
	jmp	.L284	#
.LVL480:
	.p2align 4,,10
	.p2align 3
.L308:
	movl	16(%esp), %ebp	# %sfp, node
.LBE555:
.LBE558:
.LBE560:
	.loc 13 140 0
	movl	%ebp, (%ebx,%eax,4)	# node, tree_144->map
.LVL481:
.LBB561:
.LBB562:
	.loc 2 155 0
	movl	68(%esp), %eax	# node, tmp198
.LVL482:
	movl	%eax, 4(%eax)	# tmp199, MEM[(struct tommy_node *)node_2(D)].prev
	.loc 2 158 0
	movl	$0, (%eax)	#, MEM[(struct tommy_node *)node_2(D)].next
	.loc 2 160 0
	movl	%eax, (%ebx,%edx,4)	# tmp201, MEM[(struct tommy_node * *)tree_144].map
.LBE562:
.LBE561:
.LBE566:
.LBE569:
	.loc 13 164 0
	movl	64(%esp), %eax	# trie, tmp203
	addl	$1, 64(%eax)	#, trie_8(D)->count
	.loc 13 165 0
	addl	$44, %esp	#,
	.cfi_remember_state
	.cfi_def_cfa_offset 20
	popl	%ebx	#
	.cfi_restore 3
	.cfi_def_cfa_offset 16
.LVL483:
	popl	%esi	#
	.cfi_restore 6
	.cfi_def_cfa_offset 12
	popl	%edi	#
	.cfi_restore 7
	.cfi_def_cfa_offset 8
	popl	%ebp	#
	.cfi_restore 5
	.cfi_def_cfa_offset 4
	ret
.LVL484:
.L307:
	.cfi_restore_state
.LBB570:
.LBB567:
.LBB563:
.LBB564:
	.loc 2 192 0
	movl	4(%ebp), %eax	# MEM[(struct tommy_node_struct * *)node_154 + 4B], D.5905
	movl	68(%esp), %edi	# node, tmp182
	movl	%eax, 4(%edi)	# D.5905, MEM[(struct tommy_node *)node_2(D)].prev
	.loc 2 193 0
	movl	%edi, 4(%ebp)	# tmp183, MEM[(struct tommy_node_struct * *)node_154 + 4B]
	.loc 2 197 0
	movl	4(%edi), %eax	# MEM[(struct tommy_node *)node_2(D)].prev, MEM[(struct tommy_node *)node_2(D)].prev
	.loc 2 196 0
	movl	$0, (%edi)	#, MEM[(struct tommy_node *)node_2(D)].next
	.loc 2 197 0
	movl	%edi, (%eax)	# tmp186, _31->next
.LBE564:
.LBE563:
.LBE567:
.LBE570:
	.loc 13 164 0
	movl	64(%esp), %eax	# trie, tmp203
	addl	$1, 64(%eax)	#, trie_8(D)->count
	.loc 13 165 0
	addl	$44, %esp	#,
	.cfi_remember_state
	.cfi_def_cfa_offset 20
	popl	%ebx	#
	.cfi_restore 3
	.cfi_def_cfa_offset 16
	popl	%esi	#
	.cfi_restore 6
	.cfi_def_cfa_offset 12
.LVL485:
	popl	%edi	#
	.cfi_restore 7
	.cfi_def_cfa_offset 8
	popl	%ebp	#
	.cfi_restore 5
	.cfi_def_cfa_offset 4
.LVL486:
	ret
.LVL487:
.L310:
	.cfi_restore_state
	movl	0, %eax	# MEM[(struct tommy_allocator_entry_struct *)0B].next, D.5902
.LBB571:
.LBB568:
.LBB565:
.LBB559:
.LBB557:
	.loc 8 106 0
	xorl	%ebx, %ebx	# tree
	jmp	.L284	#
.LBE557:
.LBE559:
.LBE565:
.LBE568:
.LBE571:
	.cfi_endproc
.LFE91:
	.size	tommy_trie_insert, .-tommy_trie_insert
	.section	.text.unlikely
.LCOLDE31:
	.text
.LHOTE31:
	.section	.rodata.str1.1
.LC32:
	.string	"tommytrie.c"
.LC33:
	.string	"count == 1"
	.section	.text.unlikely
.LCOLDB34:
	.text
.LHOTB34:
	.p2align 4,,15
	.globl	tommy_trie_remove
	.type	tommy_trie_remove, @function
tommy_trie_remove:
.LFB93:
	.loc 13 253 0
	.cfi_startproc
.LVL488:
	pushl	%ebp	#
	.cfi_def_cfa_offset 8
	.cfi_offset 5, -8
	pushl	%edi	#
	.cfi_def_cfa_offset 12
	.cfi_offset 7, -12
	pushl	%esi	#
	.cfi_def_cfa_offset 16
	.cfi_offset 6, -16
	pushl	%ebx	#
	.cfi_def_cfa_offset 20
	.cfi_offset 3, -20
	subl	$60, %esp	#,
	.cfi_def_cfa_offset 80
	.loc 13 253 0
	movl	84(%esp), %ebx	# key, key
	movl	80(%esp), %edx	# trie, trie
	.loc 13 257 0
	movl	%ebx, %esi	# key, D.5950
	shrl	$28, %esi	#, D.5950
.LBB578:
.LBB579:
	.loc 13 180 0
	movl	(%edx,%esi,4), %eax	# MEM[(struct tommy_trie_node * *)trie_5(D)].bucket, remove
.LBE579:
.LBE578:
	.loc 13 257 0
	leal	(%edx,%esi,4), %ecx	#, let_ptr
.LVL489:
.LBB592:
.LBB590:
	.loc 13 182 0
	testl	%eax, %eax	# remove
	je	.L312	#,
	.loc 13 185 0
	testb	$1, %al	#, remove
	je	.L323	#,
	.loc 13 186 0
	subl	$1, %eax	#, tree
.LVL490:
	.loc 13 192 0
	andl	$15, %esi	#, D.5950
	.loc 13 189 0
	movl	%ecx, 16(%esp)	# let_ptr, let_back
	.loc 13 192 0
	leal	(%eax,%esi,4), %ecx	#, let_ptr
.LVL491:
	.loc 13 180 0
	movl	(%eax,%esi,4), %eax	# MEM[(struct tommy_trie_node * *)tree_103].map, remove
.LVL492:
	.loc 13 182 0
	testl	%eax, %eax	# remove
	je	.L312	#,
	.loc 13 185 0
	testb	$1, %al	#, remove
	je	.L324	#,
	.loc 13 192 0
	movl	%ebx, %esi	# key, D.5950
	.loc 13 186 0
	subl	$1, %eax	#, tree
.LVL493:
	.loc 13 189 0
	movl	%ecx, 20(%esp)	# let_ptr, let_back
	.loc 13 192 0
	shrl	$24, %esi	#, D.5950
	andl	$15, %esi	#, D.5950
	leal	(%eax,%esi,4), %ecx	#, let_ptr
.LVL494:
	.loc 13 180 0
	movl	(%eax,%esi,4), %eax	# MEM[(struct tommy_trie_node * *)tree_24].map, remove
.LVL495:
	.loc 13 182 0
	testl	%eax, %eax	# remove
	je	.L312	#,
	.loc 13 185 0
	testb	$1, %al	#, remove
	je	.L325	#,
	.loc 13 192 0
	movl	%ebx, %esi	# key, D.5950
	.loc 13 186 0
	subl	$1, %eax	#, tree
.LVL496:
	.loc 13 189 0
	movl	%ecx, 24(%esp)	# let_ptr, let_back
	.loc 13 192 0
	shrl	$20, %esi	#, D.5950
	andl	$15, %esi	#, D.5950
	leal	(%eax,%esi,4), %ecx	#, let_ptr
.LVL497:
	.loc 13 180 0
	movl	(%eax,%esi,4), %eax	# MEM[(struct tommy_trie_node * *)tree_126].map, remove
.LVL498:
	.loc 13 182 0
	testl	%eax, %eax	# remove
	je	.L312	#,
	.loc 13 185 0
	testb	$1, %al	#, remove
	je	.L326	#,
	.loc 13 192 0
	movl	%ebx, %esi	# key, D.5950
	.loc 13 186 0
	subl	$1, %eax	#, tree
.LVL499:
	.loc 13 189 0
	movl	%ecx, 28(%esp)	# let_ptr, let_back
	.loc 13 192 0
	shrl	$16, %esi	#, D.5950
	andl	$15, %esi	#, D.5950
	leal	(%eax,%esi,4), %ecx	#, let_ptr
.LVL500:
	.loc 13 180 0
	movl	(%eax,%esi,4), %eax	# MEM[(struct tommy_trie_node * *)tree_143].map, remove
.LVL501:
	.loc 13 182 0
	testl	%eax, %eax	# remove
	je	.L312	#,
	.loc 13 185 0
	testb	$1, %al	#, remove
	je	.L327	#,
	.loc 13 192 0
	movl	%ebx, %esi	# key, D.5950
	.loc 13 186 0
	subl	$1, %eax	#, tree
.LVL502:
	.loc 13 189 0
	movl	%ecx, 32(%esp)	# let_ptr, let_back
	.loc 13 192 0
	shrl	$12, %esi	#, D.5950
	andl	$15, %esi	#, D.5950
	leal	(%eax,%esi,4), %ecx	#, let_ptr
.LVL503:
	.loc 13 180 0
	movl	(%eax,%esi,4), %eax	# MEM[(struct tommy_trie_node * *)tree_160].map, remove
.LVL504:
	.loc 13 182 0
	testl	%eax, %eax	# remove
	je	.L312	#,
	.loc 13 185 0
	testb	$1, %al	#, remove
	je	.L328	#,
	.loc 13 192 0
	movl	%ebx, %esi	# key, D.5950
	.loc 13 186 0
	subl	$1, %eax	#, tree
.LVL505:
	.loc 13 189 0
	movl	%ecx, 36(%esp)	# let_ptr, let_back
	.loc 13 192 0
	shrl	$8, %esi	#, D.5950
	andl	$15, %esi	#, D.5950
	leal	(%eax,%esi,4), %ecx	#, let_ptr
.LVL506:
	.loc 13 180 0
	movl	(%eax,%esi,4), %eax	# MEM[(struct tommy_trie_node * *)tree_177].map, remove
.LVL507:
	.loc 13 182 0
	testl	%eax, %eax	# remove
	je	.L312	#,
	.loc 13 185 0
	testb	$1, %al	#, remove
	je	.L329	#,
	.loc 13 192 0
	movl	%ebx, %esi	# key, D.5950
	.loc 13 186 0
	subl	$1, %eax	#, tree
.LVL508:
	.loc 13 189 0
	movl	%ecx, 40(%esp)	# let_ptr, let_back
	.loc 13 192 0
	shrl	$4, %esi	#, D.5950
	andl	$15, %esi	#, D.5950
	leal	(%eax,%esi,4), %ecx	#, let_ptr
.LVL509:
	.loc 13 180 0
	movl	(%eax,%esi,4), %eax	# MEM[(struct tommy_trie_node * *)tree_194].map, remove
.LVL510:
	.loc 13 182 0
	testl	%eax, %eax	# remove
	je	.L312	#,
	.loc 13 185 0
	testb	$1, %al	#, remove
	.loc 13 189 0
	movl	$7, %esi	#, level
	.loc 13 185 0
	je	.L313	#,
	.loc 13 192 0
	movl	%ebx, %esi	# key, D.5950
	.loc 13 186 0
	subl	$1, %eax	#, tree
.LVL511:
	.loc 13 189 0
	movl	%ecx, 44(%esp)	# let_ptr, let_back
	.loc 13 192 0
	andl	$15, %esi	#, D.5950
	leal	(%eax,%esi,4), %ecx	#, let_ptr
.LVL512:
.LDL2:
	.loc 13 180 0
	movl	(%eax,%esi,4), %eax	# MEM[(struct tommy_trie_node * *)tree_21].map, remove
.LVL513:
	.loc 13 182 0
	testl	%eax, %eax	# remove
	je	.L312	#,
	.loc 13 189 0
	movl	$8, %esi	#, level
.LVL514:
.L313:
	.loc 13 206 0
	cmpl	12(%eax), %ebx	# remove_33->key, key
	jne	.L312	#,
.LVL515:
.LBB580:
.LBB581:
	.loc 2 267 0
	movl	(%eax), %ebx	# MEM[(struct tommy_node *)remove_33].next, D.5951
.LVL516:
	testl	%ebx, %ebx	# D.5951
	je	.L316	#,
	.loc 2 268 0
	movl	4(%eax), %esi	# MEM[(struct tommy_node *)remove_33].prev, D.5951
	movl	%esi, 4(%ebx)	# D.5951, _34->prev
	.loc 2 275 0
	movl	%ebx, (%ecx)	# D.5951, MEM[(struct tommy_node * *)let_ptr_36]
.LVL517:
.L317:
.LBE581:
.LBE580:
.LBE590:
.LBE592:
	.loc 13 264 0
	subl	$1, 64(%edx)	#, trie_5(D)->count
	.loc 13 266 0
	movl	8(%eax), %eax	# remove_33->data, D.5949
.LVL518:
	.loc 13 267 0
	addl	$60, %esp	#,
	.cfi_remember_state
	.cfi_def_cfa_offset 20
	popl	%ebx	#
	.cfi_restore 3
	.cfi_def_cfa_offset 16
	popl	%esi	#
	.cfi_restore 6
	.cfi_def_cfa_offset 12
	popl	%edi	#
	.cfi_restore 7
	.cfi_def_cfa_offset 8
	popl	%ebp	#
	.cfi_restore 5
	.cfi_def_cfa_offset 4
	ret
.LVL519:
	.p2align 4,,10
	.p2align 3
.L312:
	.cfi_restore_state
	addl	$60, %esp	#,
	.cfi_remember_state
	.cfi_def_cfa_offset 20
	.loc 13 262 0
	xorl	%eax, %eax	# D.5949
.LVL520:
	.loc 13 267 0
	popl	%ebx	#
	.cfi_restore 3
	.cfi_def_cfa_offset 16
.LVL521:
	popl	%esi	#
	.cfi_restore 6
	.cfi_def_cfa_offset 12
	popl	%edi	#
	.cfi_restore 7
	.cfi_def_cfa_offset 8
	popl	%ebp	#
	.cfi_restore 5
	.cfi_def_cfa_offset 4
	ret
.LVL522:
	.p2align 4,,10
	.p2align 3
.L316:
	.cfi_restore_state
.LBB593:
.LBB591:
	.loc 13 213 0
	testl	%esi, %esi	# level
.LBB583:
.LBB582:
	.loc 2 275 0
	movl	$0, (%ecx)	#, MEM[(struct tommy_node * *)let_ptr_36]
.LBE582:
.LBE583:
	.loc 13 213 0
	je	.L317	#,
	leal	16(%esp,%esi,4), %edi	#, ivtmp.340
	movl	%edi, 4(%esp)	# ivtmp.340, %sfp
.LVL523:
.L321:
	.loc 13 218 0
	movl	-4(%edi), %edi	# MEM[base: _209, offset: 4294967292B], let_ptr
	.loc 13 224 0
	xorl	%ebp, %ebp	# last
	.loc 13 223 0
	xorl	%esi, %esi	# count
	.loc 13 225 0
	xorl	%ecx, %ecx	# last
	.loc 13 218 0
	movl	%edi, 8(%esp)	# let_ptr, %sfp
.LVL524:
	.loc 13 220 0
	movl	(%edi), %edi	# *let_ptr_41, *let_ptr_41
.LVL525:
	movl	%edi, 12(%esp)	# *let_ptr_41, %sfp
	subl	$1, %edi	#, tree
.LVL526:
	.p2align 4,,10
	.p2align 3
.L319:
	.loc 13 226 0
	movl	(%edi,%ecx,4), %ebx	# MEM[base: tree_45, index: last_91, step: 4, offset: 0B], D.5952
	testl	%ebx, %ebx	# D.5952
	je	.L318	#,
	.loc 13 228 0
	andl	$1, %ebx	#, D.5952
	jne	.L317	#,
.LVL527:
	.loc 13 231 0
	cmpl	$1, %esi	#, count
	je	.L317	#,
	movl	%ecx, %ebp	# last, last
	movl	$1, %esi	#, count
.LVL528:
.L318:
	.loc 13 225 0
	addl	$1, %ecx	#, last
.LVL529:
	cmpl	$16, %ecx	#, last
	jne	.L319	#,
	.loc 13 238 0
	cmpl	$1, %esi	#, count
	jne	.L373	#,
	.loc 13 240 0
	movl	(%edi,%ebp,4), %ecx	# tree_45->map, D.5952
.LVL530:
	movl	8(%esp), %ebx	# %sfp, let_ptr
.LBB584:
.LBB585:
	.loc 8 130 0
	movl	12(%esp), %esi	# %sfp, *let_ptr_41
.LVL531:
	subl	$4, 4(%esp)	#, %sfp
.LBE585:
.LBE584:
	.loc 13 240 0
	movl	%ecx, (%ebx)	# D.5952, *let_ptr_41
	.loc 13 242 0
	movl	72(%edx), %ecx	# MEM[(struct tommy_allocator * *)trie_5(D) + 72B], D.5953
.LVL532:
.LBB588:
.LBB586:
	.loc 8 130 0
	movl	(%ecx), %ebx	# _55->free_block, _55->free_block
	movl	%ebx, -1(%esi)	# _55->free_block, MEM[(struct tommy_allocator_entry *)tree_45].next
	.loc 8 131 0
	movl	%edi, (%ecx)	# tree, _55->free_block
.LBE586:
.LBE588:
	.loc 13 246 0
	leal	16(%esp), %ebx	#, tmp225
	movl	4(%esp), %edi	# %sfp, ivtmp.340
.LVL533:
.LBB589:
.LBB587:
	.loc 8 133 0
	subl	$1, 16(%ecx)	#, _55->count
.LBE587:
.LBE589:
	.loc 13 243 0
	subl	$1, 68(%edx)	#, MEM[(unsigned int *)trie_5(D) + 68B]
	.loc 13 246 0
	cmpl	%ebx, %edi	# tmp225, ivtmp.340
	jne	.L321	#,
	jmp	.L317	#
.LVL534:
	.p2align 4,,10
	.p2align 3
.L323:
	.loc 13 178 0
	xorl	%esi, %esi	# level
	jmp	.L313	#
.LVL535:
	.p2align 4,,10
	.p2align 3
.L327:
	.loc 13 189 0
	movl	$4, %esi	#, level
	jmp	.L313	#
.LVL536:
	.p2align 4,,10
	.p2align 3
.L329:
	movl	$6, %esi	#, level
	jmp	.L313	#
.LVL537:
	.p2align 4,,10
	.p2align 3
.L328:
	movl	$5, %esi	#, level
	jmp	.L313	#
.LVL538:
	.p2align 4,,10
	.p2align 3
.L325:
	movl	$2, %esi	#, level
	jmp	.L313	#
.LVL539:
	.p2align 4,,10
	.p2align 3
.L324:
	movl	$1, %esi	#, level
	jmp	.L313	#
.LVL540:
	.p2align 4,,10
	.p2align 3
.L326:
	movl	$3, %esi	#, level
	jmp	.L313	#
.LVL541:
.L373:
	.loc 13 238 0
	pushl	$__PRETTY_FUNCTION__.3347	#
	.cfi_def_cfa_offset 84
	pushl	$238	#
	.cfi_def_cfa_offset 88
	pushl	$.LC32	#
	.cfi_def_cfa_offset 92
	pushl	$.LC33	#
	.cfi_def_cfa_offset 96
	call	__assert_fail	#
.LVL542:
.LBE591:
.LBE593:
	.cfi_endproc
.LFE93:
	.size	tommy_trie_remove, .-tommy_trie_remove
	.section	.text.unlikely
.LCOLDE34:
	.text
.LHOTE34:
	.section	.rodata.str1.1
.LC35:
	.string	"ret == node"
	.section	.text.unlikely
.LCOLDB36:
	.text
.LHOTB36:
	.p2align 4,,15
	.globl	tommy_trie_remove_existing
	.type	tommy_trie_remove_existing, @function
tommy_trie_remove_existing:
.LFB94:
	.loc 13 270 0
	.cfi_startproc
.LVL543:
	pushl	%ebp	#
	.cfi_def_cfa_offset 8
	.cfi_offset 5, -8
	pushl	%edi	#
	.cfi_def_cfa_offset 12
	.cfi_offset 7, -12
	pushl	%esi	#
	.cfi_def_cfa_offset 16
	.cfi_offset 6, -16
	pushl	%ebx	#
	.cfi_def_cfa_offset 20
	.cfi_offset 3, -20
	subl	$60, %esp	#,
	.cfi_def_cfa_offset 80
	.loc 13 270 0
	movl	84(%esp), %eax	# node, node
	movl	80(%esp), %edx	# trie, trie
	.loc 13 272 0
	movl	12(%eax), %esi	# node_2(D)->key, key
.LVL544:
	.loc 13 275 0
	movl	%esi, %edi	# key, D.6001
	shrl	$28, %edi	#, D.6001
.LBB600:
.LBB601:
	.loc 13 180 0
	movl	(%edx,%edi,4), %ecx	# MEM[(struct tommy_trie_node * *)trie_5(D)].bucket, node
.LBE601:
.LBE600:
	.loc 13 275 0
	leal	(%edx,%edi,4), %ebx	#, let_ptr
.LVL545:
.LBB612:
.LBB610:
	.loc 13 182 0
	testl	%ecx, %ecx	# node
	je	.L375	#,
	.loc 13 185 0
	testb	$1, %cl	#, node
	je	.L390	#,
	.loc 13 186 0
	subl	$1, %ecx	#, tree
.LVL546:
	.loc 13 192 0
	andl	$15, %edi	#, D.6001
	.loc 13 189 0
	movl	%ebx, 16(%esp)	# let_ptr, let_back
	.loc 13 192 0
	leal	(%ecx,%edi,4), %ebx	#, let_ptr
.LVL547:
	.loc 13 180 0
	movl	(%ecx,%edi,4), %ecx	# MEM[(struct tommy_trie_node * *)tree_116].map, node
.LVL548:
	.loc 13 182 0
	testl	%ecx, %ecx	# node
	je	.L375	#,
	.loc 13 185 0
	testb	$1, %cl	#, node
	je	.L391	#,
	.loc 13 192 0
	movl	%esi, %edi	# key, D.6001
	.loc 13 186 0
	subl	$1, %ecx	#, tree
.LVL549:
	.loc 13 189 0
	movl	%ebx, 20(%esp)	# let_ptr, let_back
	.loc 13 192 0
	shrl	$24, %edi	#, D.6001
	andl	$15, %edi	#, D.6001
	leal	(%ecx,%edi,4), %ebx	#, let_ptr
.LVL550:
	.loc 13 180 0
	movl	(%ecx,%edi,4), %ecx	# MEM[(struct tommy_trie_node * *)tree_62].map, node
.LVL551:
	.loc 13 182 0
	testl	%ecx, %ecx	# node
	je	.L375	#,
	.loc 13 185 0
	testb	$1, %cl	#, node
	je	.L392	#,
	.loc 13 192 0
	movl	%esi, %edi	# key, D.6001
	.loc 13 186 0
	subl	$1, %ecx	#, tree
.LVL552:
	.loc 13 189 0
	movl	%ebx, 24(%esp)	# let_ptr, let_back
	.loc 13 192 0
	shrl	$20, %edi	#, D.6001
	andl	$15, %edi	#, D.6001
	leal	(%ecx,%edi,4), %ebx	#, let_ptr
.LVL553:
	.loc 13 180 0
	movl	(%ecx,%edi,4), %ecx	# MEM[(struct tommy_trie_node * *)tree_133].map, node
.LVL554:
	.loc 13 182 0
	testl	%ecx, %ecx	# node
	je	.L375	#,
	.loc 13 185 0
	testb	$1, %cl	#, node
	je	.L393	#,
	.loc 13 192 0
	movl	%esi, %edi	# key, D.6001
	.loc 13 186 0
	subl	$1, %ecx	#, tree
.LVL555:
	.loc 13 189 0
	movl	%ebx, 28(%esp)	# let_ptr, let_back
	.loc 13 192 0
	shrl	$16, %edi	#, D.6001
	andl	$15, %edi	#, D.6001
	leal	(%ecx,%edi,4), %ebx	#, let_ptr
.LVL556:
	.loc 13 180 0
	movl	(%ecx,%edi,4), %ecx	# MEM[(struct tommy_trie_node * *)tree_150].map, node
.LVL557:
	.loc 13 182 0
	testl	%ecx, %ecx	# node
	je	.L375	#,
	.loc 13 185 0
	testb	$1, %cl	#, node
	je	.L394	#,
	.loc 13 192 0
	movl	%esi, %edi	# key, D.6001
	.loc 13 186 0
	subl	$1, %ecx	#, tree
.LVL558:
	.loc 13 189 0
	movl	%ebx, 32(%esp)	# let_ptr, let_back
	.loc 13 192 0
	shrl	$12, %edi	#, D.6001
	andl	$15, %edi	#, D.6001
	leal	(%ecx,%edi,4), %ebx	#, let_ptr
.LVL559:
	.loc 13 180 0
	movl	(%ecx,%edi,4), %ecx	# MEM[(struct tommy_trie_node * *)tree_167].map, node
.LVL560:
	.loc 13 182 0
	testl	%ecx, %ecx	# node
	je	.L375	#,
	.loc 13 185 0
	testb	$1, %cl	#, node
	je	.L395	#,
	.loc 13 192 0
	movl	%esi, %edi	# key, D.6001
	.loc 13 186 0
	subl	$1, %ecx	#, tree
.LVL561:
	.loc 13 189 0
	movl	%ebx, 36(%esp)	# let_ptr, let_back
	.loc 13 192 0
	shrl	$8, %edi	#, D.6001
	andl	$15, %edi	#, D.6001
	leal	(%ecx,%edi,4), %ebx	#, let_ptr
.LVL562:
	.loc 13 180 0
	movl	(%ecx,%edi,4), %ecx	# MEM[(struct tommy_trie_node * *)tree_184].map, node
.LVL563:
	.loc 13 182 0
	testl	%ecx, %ecx	# node
	je	.L375	#,
	.loc 13 185 0
	testb	$1, %cl	#, node
	je	.L396	#,
	.loc 13 192 0
	movl	%esi, %edi	# key, D.6001
	.loc 13 186 0
	subl	$1, %ecx	#, tree
.LVL564:
	.loc 13 189 0
	movl	%ebx, 40(%esp)	# let_ptr, let_back
	.loc 13 192 0
	shrl	$4, %edi	#, D.6001
	andl	$15, %edi	#, D.6001
	leal	(%ecx,%edi,4), %ebx	#, let_ptr
.LVL565:
	.loc 13 180 0
	movl	(%ecx,%edi,4), %ecx	# MEM[(struct tommy_trie_node * *)tree_201].map, node
.LVL566:
	.loc 13 182 0
	testl	%ecx, %ecx	# node
	je	.L375	#,
	.loc 13 185 0
	testb	$1, %cl	#, node
	.loc 13 189 0
	movl	$7, %edi	#, level
	.loc 13 185 0
	je	.L377	#,
	.loc 13 186 0
	subl	$1, %ecx	#, tree
.LVL567:
	.loc 13 192 0
	andl	$15, %esi	#, D.6001
.LVL568:
	.loc 13 189 0
	movl	%ebx, 44(%esp)	# let_ptr, let_back
	.loc 13 192 0
	leal	(%ecx,%esi,4), %ebx	#, let_ptr
.LVL569:
.LDL3:
	.loc 13 180 0
	movl	(%ecx,%esi,4), %ecx	# MEM[(struct tommy_trie_node * *)tree_21].map, node
.LVL570:
	.loc 13 182 0
	testl	%ecx, %ecx	# node
	je	.L375	#,
	.loc 13 189 0
	movl	$8, %edi	#, level
.LVL571:
.L377:
	movb	$0, 4(%esp)	#, %sfp
.LVL572:
.L376:
.LBB602:
.LBB603:
	.loc 2 267 0
	movl	(%eax), %esi	# MEM[(struct tommy_node *)node_2(D)].next, D.6004
	.loc 2 268 0
	movl	4(%eax), %ebp	# MEM[(struct tommy_node *)node_2(D)].prev, tmp218
	.loc 2 267 0
	testl	%esi, %esi	# D.6004
	je	.L379	#,
	.loc 2 268 0
	movl	%ebp, 4(%esi)	# tmp218, MEM[(struct tommy_node_struct *)_34].prev
.L380:
	.loc 2 274 0
	cmpl	%ecx, %eax	# node, node
	je	.L437	#,
	.loc 2 277 0
	movl	4(%eax), %ecx	# MEM[(struct tommy_node *)node_2(D)].prev, MEM[(struct tommy_node *)node_2(D)].prev
.LVL573:
	movl	%esi, (%ecx)	# D.6004, _37->next
	movl	(%ebx), %esi	# *let_ptr_7, D.6004
.L382:
.LBE603:
.LBE602:
	.loc 13 213 0
	testl	%esi, %esi	# D.6004
	jne	.L386	#,
	movzbl	4(%esp), %ebx	# %sfp, D.6007
.LVL574:
	testb	%bl, %bl	# D.6007
	je	.L438	#,
.LVL575:
.L386:
.LBE610:
.LBE612:
	.loc 13 282 0
	subl	$1, 64(%edx)	#, trie_5(D)->count
	.loc 13 284 0
	movl	8(%eax), %eax	# node_2(D)->data, node_2(D)->data
.LVL576:
	.loc 13 285 0
	addl	$60, %esp	#,
	.cfi_remember_state
	.cfi_def_cfa_offset 20
	popl	%ebx	#
	.cfi_restore 3
	.cfi_def_cfa_offset 16
	popl	%esi	#
	.cfi_restore 6
	.cfi_def_cfa_offset 12
	popl	%edi	#
	.cfi_restore 7
	.cfi_def_cfa_offset 8
	popl	%ebp	#
	.cfi_restore 5
	.cfi_def_cfa_offset 4
	ret
.LVL577:
	.p2align 4,,10
	.p2align 3
.L375:
	.cfi_restore_state
	.loc 13 280 0
	pushl	$__PRETTY_FUNCTION__.3361	#
	.cfi_remember_state
	.cfi_def_cfa_offset 84
	pushl	$280	#
	.cfi_def_cfa_offset 88
.LVL578:
	pushl	$.LC32	#
	.cfi_def_cfa_offset 92
	pushl	$.LC35	#
	.cfi_def_cfa_offset 96
	call	__assert_fail	#
.LVL579:
	.p2align 4,,10
	.p2align 3
.L379:
	.cfi_restore_state
.LBB613:
.LBB611:
.LBB605:
.LBB604:
	.loc 2 270 0
	movl	%ebp, 4(%ecx)	# tmp219, MEM[(struct tommy_node *)node_8].prev
	jmp	.L380	#
	.p2align 4,,10
	.p2align 3
.L437:
	.loc 2 275 0
	movl	%esi, (%ebx)	# D.6004, MEM[(struct tommy_node * *)let_ptr_7]
	jmp	.L382	#
.LVL580:
	.p2align 4,,10
	.p2align 3
.L390:
.LBE604:
.LBE605:
	.loc 13 185 0
	movb	$1, 4(%esp)	#, %sfp
	.loc 13 178 0
	xorl	%edi, %edi	# level
	jmp	.L376	#
.LVL581:
	.p2align 4,,10
	.p2align 3
.L438:
	leal	16(%esp,%edi,4), %esi	#, ivtmp.356
	movl	%esi, 4(%esp)	# ivtmp.356, %sfp
.LVL582:
.L389:
	.loc 13 218 0
	movl	-4(%esi), %esi	# MEM[base: _216, offset: 4294967292B], let_ptr
	.loc 13 224 0
	xorl	%ebp, %ebp	# last
	.loc 13 225 0
	xorl	%ecx, %ecx	# last
	.loc 13 218 0
	movl	%esi, 8(%esp)	# let_ptr, %sfp
.LVL583:
	.loc 13 220 0
	movl	(%esi), %esi	# *let_ptr_41, *let_ptr_41
.LVL584:
	movl	%esi, 12(%esp)	# *let_ptr_41, %sfp
	leal	-1(%esi), %edi	#, tree
.LVL585:
	.loc 13 223 0
	xorl	%esi, %esi	# count
.LVL586:
	.p2align 4,,10
	.p2align 3
.L387:
	.loc 13 226 0
	movl	(%edi,%ecx,4), %ebx	# MEM[base: tree_45, index: last_33, step: 4, offset: 0B], D.6004
	testl	%ebx, %ebx	# D.6004
	je	.L385	#,
	.loc 13 228 0
	andl	$1, %ebx	#, D.6004
	jne	.L386	#,
.LVL587:
	.loc 13 231 0
	cmpl	$1, %esi	#, count
	je	.L386	#,
	movl	%ecx, %ebp	# last, last
	movl	$1, %esi	#, count
.LVL588:
.L385:
	.loc 13 225 0
	addl	$1, %ecx	#, last
.LVL589:
	cmpl	$16, %ecx	#, last
	jne	.L387	#,
	.loc 13 238 0
	cmpl	$1, %esi	#, count
	jne	.L439	#,
	.loc 13 240 0
	movl	(%edi,%ebp,4), %ecx	# tree_45->map, D.6004
.LVL590:
	movl	8(%esp), %esi	# %sfp, let_ptr
.LVL591:
	subl	$4, 4(%esp)	#, %sfp
	movl	%ecx, (%esi)	# D.6004, *let_ptr_41
	.loc 13 242 0
	movl	72(%edx), %ecx	# MEM[(struct tommy_allocator * *)trie_5(D) + 72B], D.6005
.LVL592:
.LBB606:
.LBB607:
	.loc 8 130 0
	movl	12(%esp), %esi	# %sfp, *let_ptr_41
	movl	(%ecx), %ebx	# _55->free_block, _55->free_block
	movl	%ebx, -1(%esi)	# _55->free_block, MEM[(struct tommy_allocator_entry *)tree_45].next
	movl	4(%esp), %esi	# %sfp, ivtmp.356
.LBE607:
.LBE606:
	.loc 13 246 0
	leal	16(%esp), %ebx	#, tmp236
.LBB609:
.LBB608:
	.loc 8 133 0
	subl	$1, 16(%ecx)	#, _55->count
	.loc 8 131 0
	movl	%edi, (%ecx)	# tree, _55->free_block
.LBE608:
.LBE609:
	.loc 13 243 0
	subl	$1, 68(%edx)	#, MEM[(unsigned int *)trie_5(D) + 68B]
	.loc 13 246 0
	cmpl	%ebx, %esi	# tmp236, ivtmp.356
	jne	.L389	#,
	jmp	.L386	#
.LVL593:
	.p2align 4,,10
	.p2align 3
.L396:
	.loc 13 189 0
	movl	$6, %edi	#, level
	jmp	.L377	#
.LVL594:
	.p2align 4,,10
	.p2align 3
.L391:
	movl	$1, %edi	#, level
	jmp	.L377	#
.LVL595:
	.p2align 4,,10
	.p2align 3
.L394:
	movl	$4, %edi	#, level
	jmp	.L377	#
.LVL596:
	.p2align 4,,10
	.p2align 3
.L395:
	movl	$5, %edi	#, level
	jmp	.L377	#
.LVL597:
	.p2align 4,,10
	.p2align 3
.L393:
	movl	$3, %edi	#, level
	jmp	.L377	#
.LVL598:
	.p2align 4,,10
	.p2align 3
.L392:
	movl	$2, %edi	#, level
	jmp	.L377	#
.LVL599:
.L439:
	.loc 13 238 0
	pushl	$__PRETTY_FUNCTION__.3347	#
	.cfi_def_cfa_offset 84
	pushl	$238	#
	.cfi_def_cfa_offset 88
	pushl	$.LC32	#
	.cfi_def_cfa_offset 92
	pushl	$.LC33	#
	.cfi_def_cfa_offset 96
	call	__assert_fail	#
.LVL600:
.LBE611:
.LBE613:
	.cfi_endproc
.LFE94:
	.size	tommy_trie_remove_existing, .-tommy_trie_remove_existing
	.section	.text.unlikely
.LCOLDE36:
	.text
.LHOTE36:
	.section	.text.unlikely
.LCOLDB37:
	.text
.LHOTB37:
	.p2align 4,,15
	.globl	tommy_trie_bucket
	.type	tommy_trie_bucket, @function
tommy_trie_bucket:
.LFB95:
	.loc 13 288 0
	.cfi_startproc
.LVL601:
	pushl	%ebx	#
	.cfi_def_cfa_offset 8
	.cfi_offset 3, -8
	.loc 13 288 0
	movl	12(%esp), %ebx	# key, key
	.loc 13 294 0
	movl	8(%esp), %eax	# trie, trie
	movl	%ebx, %edx	# key, D.6021
	shrl	$28, %edx	#, D.6021
	movl	(%eax,%edx,4), %eax	# trie_7(D)->bucket, node
.LVL602:
	.loc 13 299 0
	testl	%eax, %eax	# node
	je	.L445	#,
	movl	$28, %ecx	#, shift
	jmp	.L444	#
.LVL603:
	.p2align 4,,10
	.p2align 3
.L448:
	.loc 13 312 0
	movl	%ebx, %edx	# key, D.6021
.LVL604:
	shrl	%cl, %edx	# shift, D.6021
	.loc 13 313 0
	subl	$4, %ecx	#, shift
.LVL605:
	.loc 13 312 0
	andl	$15, %edx	#, D.6021
	movl	-1(%eax,%edx,4), %eax	# _12->map, node
.LVL606:
.LDL4:
	.loc 13 299 0
	testl	%eax, %eax	# node
	je	.L441	#,
.LVL607:
.L444:
	.loc 13 304 0
	movl	%eax, %edx	# node, type
	andl	$1, %edx	#, type
.LVL608:
	jne	.L448	#,
.LVL609:
	.loc 13 307 0
	cmpl	%ebx, 12(%eax)	# key, node_27->key
	cmovne	%edx, %eax	# node,, type, D.6020
.LVL610:
.L441:
	.loc 13 316 0
	popl	%ebx	#
	.cfi_remember_state
	.cfi_restore 3
	.cfi_def_cfa_offset 4
.LVL611:
	ret
.LVL612:
.L445:
	.cfi_restore_state
	.loc 13 300 0
	xorl	%eax, %eax	# D.6020
.LVL613:
	.loc 13 316 0
	popl	%ebx	#
	.cfi_restore 3
	.cfi_def_cfa_offset 4
.LVL614:
	ret
	.cfi_endproc
.LFE95:
	.size	tommy_trie_bucket, .-tommy_trie_bucket
	.section	.text.unlikely
.LCOLDE37:
	.text
.LHOTE37:
	.section	.text.unlikely
.LCOLDB38:
	.text
.LHOTB38:
	.p2align 4,,15
	.globl	tommy_trie_memory_usage
	.type	tommy_trie_memory_usage, @function
tommy_trie_memory_usage:
.LFB96:
	.loc 13 319 0
	.cfi_startproc
.LVL615:
	.loc 13 319 0
	movl	4(%esp), %eax	# trie, trie
	.loc 13 321 0
	movl	68(%eax), %edx	# trie_2(D)->node_count, trie_2(D)->node_count
	movl	64(%eax), %eax	# MEM[(unsigned int *)trie_2(D) + 64B], MEM[(unsigned int *)trie_2(D) + 64B]
	leal	(%eax,%edx,4), %eax	#, D.6026
	.loc 13 320 0
	sall	$4, %eax	#, D.6027
	.loc 13 322 0
	ret
	.cfi_endproc
.LFE96:
	.size	tommy_trie_memory_usage, .-tommy_trie_memory_usage
	.section	.text.unlikely
.LCOLDE38:
	.text
.LHOTE38:
	.section	.text.unlikely
.LCOLDB39:
	.text
.LHOTB39:
	.p2align 4,,15
	.globl	tommy_trie_inplace_init
	.type	tommy_trie_inplace_init, @function
tommy_trie_inplace_init:
.LFB102:
	.file 14 "tommytrieinp.c"
	.loc 14 99 0
	.cfi_startproc
.LVL616:
	pushl	%edi	#
	.cfi_def_cfa_offset 8
	.cfi_offset 7, -8
	.loc 14 99 0
	movl	8(%esp), %edx	# trie_inplace, trie_inplace
	xorl	%eax, %eax	# tmp86
	leal	4(%edx), %edi	#, tmp87
	movl	%edx, %ecx	# trie_inplace, trie_inplace
	movl	$0, (%edx)	#,* trie_inplace
.LVL617:
	movl	$0, 252(%edx)	#,
	andl	$-4, %edi	#, tmp87
	subl	%edi, %ecx	# tmp87, trie_inplace
	addl	$256, %ecx	#, tmp85
	shrl	$2, %ecx	#, tmp88
	rep stosl
	.loc 14 105 0
	movl	$0, 256(%edx)	#, trie_inplace_4(D)->count
	.loc 14 106 0
	popl	%edi	#
	.cfi_restore 7
	.cfi_def_cfa_offset 4
	ret
	.cfi_endproc
.LFE102:
	.size	tommy_trie_inplace_init, .-tommy_trie_inplace_init
	.section	.text.unlikely
.LCOLDE39:
	.text
.LHOTE39:
	.section	.text.unlikely
.LCOLDB40:
	.text
.LHOTB40:
	.p2align 4,,15
	.globl	tommy_trie_inplace_insert
	.type	tommy_trie_inplace_insert, @function
tommy_trie_inplace_insert:
.LFB104:
	.loc 14 130 0
	.cfi_startproc
.LVL618:
	pushl	%ebp	#
	.cfi_def_cfa_offset 8
	.cfi_offset 5, -8
	pushl	%edi	#
	.cfi_def_cfa_offset 12
	.cfi_offset 7, -12
	pushl	%esi	#
	.cfi_def_cfa_offset 16
	.cfi_offset 6, -16
	pushl	%ebx	#
	.cfi_def_cfa_offset 20
	.cfi_offset 3, -20
	.loc 14 130 0
	movl	24(%esp), %esi	# node, node
	movl	32(%esp), %edx	# key, key
	.loc 14 134 0
	movl	28(%esp), %eax	# data, data
	.loc 14 130 0
	movl	20(%esp), %edi	# trie_inplace, trie_inplace
	.loc 14 138 0
	movl	$0, 16(%esi)	#, node_4(D)->map
	movl	$0, 20(%esi)	#, node_4(D)->map
	.loc 14 134 0
	movl	%eax, 8(%esi)	# data, node_4(D)->data
	.loc 14 140 0
	movl	%edx, %eax	# key, D.6044
	.loc 14 138 0
	movl	$0, 24(%esi)	#, node_4(D)->map
	.loc 14 140 0
	shrl	$26, %eax	#, D.6044
	.loc 14 138 0
	movl	$0, 28(%esi)	#, node_4(D)->map
	.loc 14 135 0
	movl	%edx, 12(%esi)	# key, node_4(D)->key
.LVL619:
.LBB620:
.LBB621:
	.loc 14 112 0
	movl	(%edi,%eax,4), %ebx	# MEM[(struct tommy_trie_inplace_node * *)trie_inplace_12(D)].bucket, node
.LVL620:
	.loc 14 113 0
	testl	%ebx, %ebx	# node
	je	.L454	#,
	cmpl	12(%ebx), %edx	# node_18->key, key
	je	.L460	#,
	movl	$26, %ecx	#, shift
	jmp	.L458	#
.LVL621:
	.p2align 4,,10
	.p2align 3
.L456:
	cmpl	12(%ebp), %edx	# node_25->key, key
	movl	%ebp, %ebx	# node, node
.LVL622:
	je	.L455	#,
.LVL623:
.L458:
	.loc 14 114 0
	movl	%edx, %eax	# key, D.6044
	shrl	%cl, %eax	# shift, D.6044
	.loc 14 116 0
	subl	$2, %ecx	#, shift
.LVL624:
	.loc 14 114 0
	andl	$3, %eax	#, D.6044
.LVL625:
	.loc 14 115 0
	addl	$4, %eax	#, tmp102
.LVL626:
	movl	(%ebx,%eax,4), %ebp	# MEM[(struct tommy_trie_inplace_node * *)node_1].map, node
.LVL627:
	.loc 14 113 0
	testl	%ebp, %ebp	# node
	jne	.L456	#,
	.loc 14 114 0
	leal	(%ebx,%eax,4), %eax	#, let_ptr
.LVL628:
.L457:
.LBB622:
.LBB623:
	.loc 14 51 0
	movl	%esi, 4(%esi)	# node, node_4(D)->prev
	.loc 14 54 0
	movl	$0, (%esi)	#, node_4(D)->next
.LBE623:
.LBE622:
	.loc 14 122 0
	movl	%esi, (%eax)	# node,* let_ptr
.LVL629:
.LBE621:
.LBE620:
	.loc 14 144 0
	addl	$1, 256(%edi)	#, trie_inplace_12(D)->count
	.loc 14 145 0
	popl	%ebx	#
	.cfi_remember_state
	.cfi_restore 3
	.cfi_def_cfa_offset 16
	popl	%esi	#
	.cfi_restore 6
	.cfi_def_cfa_offset 12
.LVL630:
	popl	%edi	#
	.cfi_restore 7
	.cfi_def_cfa_offset 8
.LVL631:
	popl	%ebp	#
	.cfi_restore 5
	.cfi_def_cfa_offset 4
	ret
.LVL632:
.L460:
	.cfi_restore_state
.LBB627:
.LBB626:
	.loc 14 113 0
	movl	%ebx, %ebp	# node, node
.LVL633:
	.p2align 4,,10
	.p2align 3
.L455:
.LBB624:
.LBB625:
	.loc 14 68 0
	movl	4(%ebp), %eax	# MEM[(struct tommy_trie_inplace_node_struct * *)node_51 + 4B], D.6046
	movl	%eax, 4(%esi)	# D.6046, node_4(D)->prev
	.loc 14 69 0
	movl	%esi, 4(%ebp)	# node, MEM[(struct tommy_trie_inplace_node_struct * *)node_51 + 4B]
	.loc 14 73 0
	movl	4(%esi), %eax	# node_4(D)->prev, node_4(D)->prev
	.loc 14 72 0
	movl	$0, (%esi)	#, node_4(D)->next
	.loc 14 73 0
	movl	%esi, (%eax)	# node,* node_4(D)->prev
.LVL634:
.LBE625:
.LBE624:
.LBE626:
.LBE627:
	.loc 14 144 0
	addl	$1, 256(%edi)	#, trie_inplace_12(D)->count
	.loc 14 145 0
	popl	%ebx	#
	.cfi_remember_state
	.cfi_restore 3
	.cfi_def_cfa_offset 16
.LVL635:
	popl	%esi	#
	.cfi_restore 6
	.cfi_def_cfa_offset 12
.LVL636:
	popl	%edi	#
	.cfi_restore 7
	.cfi_def_cfa_offset 8
.LVL637:
	popl	%ebp	#
	.cfi_restore 5
	.cfi_def_cfa_offset 4
.LVL638:
	ret
.LVL639:
.L454:
	.cfi_restore_state
	.loc 14 140 0
	leal	(%edi,%eax,4), %eax	#, let_ptr
.LVL640:
	jmp	.L457	#
	.cfi_endproc
.LFE104:
	.size	tommy_trie_inplace_insert, .-tommy_trie_inplace_insert
	.section	.text.unlikely
.LCOLDE40:
	.text
.LHOTE40:
	.section	.text.unlikely
.LCOLDB41:
	.text
.LHOTB41:
	.p2align 4,,15
	.globl	tommy_trie_inplace_remove
	.type	tommy_trie_inplace_remove, @function
tommy_trie_inplace_remove:
.LFB106:
	.loc 14 218 0
	.cfi_startproc
.LVL641:
	pushl	%ebp	#
	.cfi_def_cfa_offset 8
	.cfi_offset 5, -8
	pushl	%edi	#
	.cfi_def_cfa_offset 12
	.cfi_offset 7, -12
	pushl	%esi	#
	.cfi_def_cfa_offset 16
	.cfi_offset 6, -16
	pushl	%ebx	#
	.cfi_def_cfa_offset 20
	.cfi_offset 3, -20
	subl	$4, %esp	#,
	.cfi_def_cfa_offset 24
	.loc 14 218 0
	movl	28(%esp), %edi	# key, key
	movl	24(%esp), %esi	# trie_inplace, trie_inplace
	.loc 14 222 0
	movl	%edi, %eax	# key, D.6066
	shrl	$26, %eax	#, D.6066
.LVL642:
.LBB632:
.LBB633:
	.loc 14 154 0
	movl	(%esi,%eax,4), %ebx	# MEM[(struct tommy_trie_inplace_node * *)trie_inplace_5(D)].bucket, remove
.LVL643:
	.loc 14 155 0
	testl	%ebx, %ebx	# remove
	je	.L481	#,
	cmpl	12(%ebx), %edi	# remove_14->key, key
	je	.L466	#,
	movl	$26, %ecx	#, shift
	jmp	.L467	#
.LVL644:
	.p2align 4,,10
	.p2align 3
.L491:
	cmpl	12(%eax), %edi	# remove_21->key, key
	je	.L490	#,
	movl	%eax, %ebx	# remove, remove
.LVL645:
.L467:
	.loc 14 156 0
	movl	%edi, %edx	# key, D.6066
	shrl	%cl, %edx	# shift, D.6066
	.loc 14 158 0
	subl	$2, %ecx	#, shift
.LVL646:
	.loc 14 156 0
	andl	$3, %edx	#, D.6066
.LVL647:
	.loc 14 157 0
	addl	$4, %edx	#, tmp118
.LVL648:
	movl	(%ebx,%edx,4), %eax	# MEM[(struct tommy_trie_inplace_node * *)remove_74].map, remove
.LVL649:
	.loc 14 155 0
	testl	%eax, %eax	# remove
	jne	.L491	#,
.LVL650:
.L481:
.LBE633:
.LBE632:
	.loc 14 232 0
	addl	$4, %esp	#,
	.cfi_remember_state
	.cfi_def_cfa_offset 20
	.loc 14 227 0
	xorl	%eax, %eax	# D.6065
	.loc 14 232 0
	popl	%ebx	#
	.cfi_restore 3
	.cfi_def_cfa_offset 16
	popl	%esi	#
	.cfi_restore 6
	.cfi_def_cfa_offset 12
.LVL651:
	popl	%edi	#
	.cfi_restore 7
	.cfi_def_cfa_offset 8
.LVL652:
	popl	%ebp	#
	.cfi_restore 5
	.cfi_def_cfa_offset 4
	ret
.LVL653:
	.p2align 4,,10
	.p2align 3
.L490:
	.cfi_restore_state
.LBB642:
.LBB640:
	.loc 14 156 0
	leal	(%ebx,%edx,4), %ebp	#, let_ptr
.LVL654:
.L468:
.LBB634:
.LBB635:
	.loc 14 84 0
	movl	(%eax), %edx	# remove_87->next, D.6069
	.loc 14 81 0
	movl	0(%ebp), %ebx	# *let_ptr_86, head
.LVL655:
	.loc 14 84 0
	testl	%edx, %edx	# D.6069
	je	.L492	#,
	.loc 14 85 0
	movl	4(%eax), %ecx	# remove_87->prev, D.6067
	.loc 14 91 0
	cmpl	%eax, %ebx	# remove, head
	.loc 14 85 0
	movl	%ecx, 4(%edx)	# D.6067, MEM[(struct tommy_trie_inplace_node_struct *)_28].prev
	.loc 14 91 0
	je	.L493	#,
.L470:
	.loc 14 94 0
	movl	4(%eax), %ecx	# remove_87->prev, remove_87->prev
	movl	%edx, (%ecx)	# D.6069, _31->next
	movl	0(%ebp), %edx	# *let_ptr_86, D.6069
.LBE635:
.LBE634:
	.loc 14 173 0
	testl	%edx, %edx	# D.6069
	je	.L494	#,
.L472:
.LVL656:
	.loc 14 177 0
	movl	16(%eax), %ecx	# MEM[(struct tommy_trie_inplace_node *)remove_87 + 16B], D.6067
	movl	%ecx, 16(%edx)	# D.6067, MEM[(struct tommy_trie_inplace_node *)_52 + 16B]
.LVL657:
	movl	20(%eax), %ecx	# MEM[(struct tommy_trie_inplace_node *)remove_87 + 20B], D.6067
	movl	%ecx, 20(%edx)	# D.6067, MEM[(struct tommy_trie_inplace_node *)_52 + 20B]
.LVL658:
	movl	24(%eax), %ecx	# MEM[(struct tommy_trie_inplace_node *)remove_87 + 24B], D.6067
	movl	%ecx, 24(%edx)	# D.6067, MEM[(struct tommy_trie_inplace_node *)_52 + 24B]
.LVL659:
	movl	28(%eax), %ecx	# MEM[(struct tommy_trie_inplace_node *)remove_87 + 28B], D.6067
	movl	%ecx, 28(%edx)	# D.6067, MEM[(struct tommy_trie_inplace_node *)_52 + 28B]
.LVL660:
.L477:
.LBE640:
.LBE642:
	.loc 14 229 0
	subl	$1, 256(%esi)	#, trie_inplace_5(D)->count
	.loc 14 231 0
	movl	8(%eax), %eax	# remove_87->data, D.6065
.LVL661:
	.loc 14 232 0
	addl	$4, %esp	#,
	.cfi_remember_state
	.cfi_def_cfa_offset 20
	popl	%ebx	#
	.cfi_restore 3
	.cfi_def_cfa_offset 16
	popl	%esi	#
	.cfi_restore 6
	.cfi_def_cfa_offset 12
.LVL662:
	popl	%edi	#
	.cfi_restore 7
	.cfi_def_cfa_offset 8
	popl	%ebp	#
	.cfi_restore 5
	.cfi_def_cfa_offset 4
.LVL663:
	ret
.LVL664:
.L492:
	.cfi_restore_state
.LBB643:
.LBB641:
.LBB638:
.LBB636:
	.loc 14 87 0
	movl	4(%eax), %ecx	# remove_87->prev, D.6067
	.loc 14 91 0
	cmpl	%eax, %ebx	# remove, head
	.loc 14 87 0
	movl	%ecx, 4(%ebx)	# D.6067, head_26->prev
	.loc 14 91 0
	jne	.L470	#,
	.p2align 4,,10
	.p2align 3
.L493:
.LBE636:
.LBE638:
	.loc 14 173 0
	testl	%edx, %edx	# D.6069
.LBB639:
.LBB637:
	.loc 14 92 0
	movl	%edx, 0(%ebp)	# D.6069, *let_ptr_86
.LBE637:
.LBE639:
	.loc 14 173 0
	jne	.L472	#,
	.p2align 4,,10
	.p2align 3
.L494:
	movl	%eax, %edx	# remove, remove
	movl	$0, (%esp)	#, %sfp
	movl	$3, %edi	#, i
.LVL665:
	jmp	.L473	#
.LVL666:
	.p2align 4,,10
	.p2align 3
.L495:
	.loc 14 190 0
	leal	(%edx,%ebx,4), %edi	#, leaf_let_ptr
.LVL667:
	movl	%ecx, %edx	# remove, remove
.LVL668:
	movl	%edi, (%esp)	# leaf_let_ptr, %sfp
.LVL669:
	.loc 14 192 0
	movl	$3, %edi	#, i
.LVL670:
.L473:
	.loc 14 189 0
	leal	4(%edi), %ebx	#, tmp122
	movl	(%edx,%ebx,4), %ecx	# remove_78->map, remove
	testl	%ecx, %ecx	# remove
	jne	.L495	#,
.LVL671:
	.loc 14 188 0
	subl	$1, %edi	#, i
.LVL672:
	jns	.L473	#,
	.loc 14 199 0
	movl	(%esp), %edi	# %sfp, leaf_let_ptr
.LVL673:
	testl	%edi, %edi	# leaf_let_ptr
	je	.L477	#,
	.loc 14 204 0
	movl	$0, (%edi)	#, *leaf_let_ptr_37
.LVL674:
	.loc 14 208 0
	movl	16(%eax), %ecx	# remove_87->map, D.6067
	movl	%ecx, 16(%edx)	# D.6067, remove_42->map
.LVL675:
	movl	20(%eax), %ecx	# MEM[(struct tommy_trie_inplace_node *)remove_87 + 20B], D.6067
	movl	%ecx, 20(%edx)	# D.6067, MEM[(struct tommy_trie_inplace_node *)remove_42 + 20B]
.LVL676:
	movl	24(%eax), %ecx	# MEM[(struct tommy_trie_inplace_node *)remove_87 + 24B], D.6067
	movl	%ecx, 24(%edx)	# D.6067, MEM[(struct tommy_trie_inplace_node *)remove_42 + 24B]
.LVL677:
	movl	28(%eax), %ecx	# MEM[(struct tommy_trie_inplace_node *)remove_87 + 28B], D.6067
	movl	%ecx, 28(%edx)	# D.6067, MEM[(struct tommy_trie_inplace_node *)remove_42 + 28B]
.LVL678:
	.loc 14 212 0
	movl	%edx, 0(%ebp)	# remove, *let_ptr_86
	jmp	.L477	#
.LVL679:
.L466:
.LBE641:
.LBE643:
	.loc 14 222 0
	leal	(%esi,%eax,4), %ebp	#, let_ptr
	movl	%ebx, %eax	# remove, remove
.LVL680:
	jmp	.L468	#
	.cfi_endproc
.LFE106:
	.size	tommy_trie_inplace_remove, .-tommy_trie_inplace_remove
	.section	.text.unlikely
.LCOLDE41:
	.text
.LHOTE41:
	.section	.rodata.str1.1
.LC42:
	.string	"tommytrieinp.c"
	.section	.text.unlikely
.LCOLDB43:
	.text
.LHOTB43:
	.p2align 4,,15
	.globl	tommy_trie_inplace_remove_existing
	.type	tommy_trie_inplace_remove_existing, @function
tommy_trie_inplace_remove_existing:
.LFB107:
	.loc 14 235 0
	.cfi_startproc
.LVL681:
	pushl	%ebp	#
	.cfi_def_cfa_offset 8
	.cfi_offset 5, -8
	pushl	%edi	#
	.cfi_def_cfa_offset 12
	.cfi_offset 7, -12
	pushl	%esi	#
	.cfi_def_cfa_offset 16
	.cfi_offset 6, -16
	pushl	%ebx	#
	.cfi_def_cfa_offset 20
	.cfi_offset 3, -20
	subl	$28, %esp	#,
	.cfi_def_cfa_offset 48
	.loc 14 235 0
	movl	52(%esp), %eax	# node, node
	movl	48(%esp), %esi	# trie_inplace, trie_inplace
	.loc 14 237 0
	movl	12(%eax), %ebx	# node_2(D)->key, key
.LVL682:
	.loc 14 240 0
	movl	%ebx, %edx	# key, D.6088
	shrl	$26, %edx	#, D.6088
.LVL683:
.LBB648:
.LBB649:
	.loc 14 154 0
	movl	(%esi,%edx,4), %edi	# MEM[(struct tommy_trie_inplace_node * *)trie_inplace_5(D)].bucket, node
.LVL684:
	.loc 14 155 0
	testl	%edi, %edi	# node
	je	.L497	#,
	cmpl	12(%edi), %ebx	# node_14->key, key
	je	.L498	#,
	movl	$26, %ecx	#, shift
	jmp	.L499	#
.LVL685:
	.p2align 4,,10
	.p2align 3
.L526:
	cmpl	12(%ebp), %ebx	# node_21->key, key
	je	.L525	#,
	movl	%ebp, %edi	# node, node
.LVL686:
.L499:
	.loc 14 156 0
	movl	%ebx, %edx	# key, D.6088
	shrl	%cl, %edx	# shift, D.6088
	.loc 14 158 0
	subl	$2, %ecx	#, shift
.LVL687:
	.loc 14 156 0
	andl	$3, %edx	#, D.6088
.LVL688:
	.loc 14 157 0
	addl	$4, %edx	#, tmp119
.LVL689:
	movl	(%edi,%edx,4), %ebp	# MEM[(struct tommy_trie_inplace_node * *)node_78].map, node
.LVL690:
	.loc 14 155 0
	testl	%ebp, %ebp	# node
	jne	.L526	#,
.LVL691:
.L497:
.LBE649:
.LBE648:
	.loc 14 245 0 discriminator 1
	pushl	$__PRETTY_FUNCTION__.3503	#
	.cfi_remember_state
	.cfi_def_cfa_offset 52
	pushl	$245	#
	.cfi_def_cfa_offset 56
	pushl	$.LC42	#
	.cfi_def_cfa_offset 60
	pushl	$.LC35	#
	.cfi_def_cfa_offset 64
	call	__assert_fail	#
.LVL692:
	.p2align 4,,10
	.p2align 3
.L525:
	.cfi_restore_state
.LBB656:
.LBB654:
	.loc 14 156 0
	leal	(%edi,%edx,4), %ebp	#, let_ptr
.LVL693:
.L500:
.LBB650:
.LBB651:
	.loc 14 84 0
	movl	(%eax), %edx	# node_2(D)->next, D.6091
	.loc 14 81 0
	movl	0(%ebp), %ebx	# *let_ptr_89, head
.LVL694:
	.loc 14 84 0
	testl	%edx, %edx	# D.6091
	je	.L527	#,
	.loc 14 85 0
	movl	4(%eax), %ecx	# node_2(D)->prev, D.6092
	movl	%ecx, 4(%edx)	# D.6092, MEM[(struct tommy_trie_inplace_node_struct *)_28].prev
.L501:
	.loc 14 91 0
	cmpl	%ebx, %eax	# head, node
	je	.L528	#,
	.loc 14 94 0
	movl	4(%eax), %ecx	# node_2(D)->prev, node_2(D)->prev
	movl	%edx, (%ecx)	# D.6091, _31->next
	movl	0(%ebp), %edx	# *let_ptr_89, D.6091
.L503:
.LBE651:
.LBE650:
	.loc 14 173 0
	testl	%edx, %edx	# D.6091
	je	.L529	#,
.LVL695:
	.loc 14 177 0
	movl	16(%eax), %ecx	# MEM[(struct tommy_trie_inplace_node *)node_2(D) + 16B], D.6092
	movl	%ecx, 16(%edx)	# D.6092, MEM[(struct tommy_trie_inplace_node *)_19 + 16B]
.LVL696:
	movl	20(%eax), %ecx	# MEM[(struct tommy_trie_inplace_node *)node_2(D) + 20B], D.6092
	movl	%ecx, 20(%edx)	# D.6092, MEM[(struct tommy_trie_inplace_node *)_19 + 20B]
.LVL697:
	movl	24(%eax), %ecx	# MEM[(struct tommy_trie_inplace_node *)node_2(D) + 24B], D.6092
	movl	%ecx, 24(%edx)	# D.6092, MEM[(struct tommy_trie_inplace_node *)_19 + 24B]
.LVL698:
	movl	28(%eax), %ecx	# MEM[(struct tommy_trie_inplace_node *)node_2(D) + 28B], D.6092
	movl	%ecx, 28(%edx)	# D.6092, MEM[(struct tommy_trie_inplace_node *)_19 + 28B]
.LVL699:
.L509:
.LBE654:
.LBE656:
	.loc 14 247 0
	subl	$1, 256(%esi)	#, trie_inplace_5(D)->count
	.loc 14 249 0
	movl	8(%eax), %eax	# node_2(D)->data, node_2(D)->data
.LVL700:
	.loc 14 250 0
	addl	$28, %esp	#,
	.cfi_remember_state
	.cfi_def_cfa_offset 20
	popl	%ebx	#
	.cfi_restore 3
	.cfi_def_cfa_offset 16
	popl	%esi	#
	.cfi_restore 6
	.cfi_def_cfa_offset 12
	popl	%edi	#
	.cfi_restore 7
	.cfi_def_cfa_offset 8
	popl	%ebp	#
	.cfi_restore 5
	.cfi_def_cfa_offset 4
.LVL701:
	ret
.LVL702:
	.p2align 4,,10
	.p2align 3
.L529:
	.cfi_restore_state
.LBB657:
.LBB655:
	.loc 14 173 0
	movl	%eax, %edx	# node, node
	movl	$0, 12(%esp)	#, %sfp
	movl	$3, %edi	#, i
	jmp	.L505	#
.LVL703:
	.p2align 4,,10
	.p2align 3
.L530:
	.loc 14 190 0
	leal	(%edx,%ebx,4), %edi	#, leaf_let_ptr
.LVL704:
	movl	%ecx, %edx	# node, node
.LVL705:
	movl	%edi, 12(%esp)	# leaf_let_ptr, %sfp
.LVL706:
	.loc 14 192 0
	movl	$3, %edi	#, i
.LVL707:
.L505:
	.loc 14 189 0
	leal	4(%edi), %ebx	#, tmp123
	movl	(%edx,%ebx,4), %ecx	# node_24->map, node
	testl	%ecx, %ecx	# node
	jne	.L530	#,
.LVL708:
	.loc 14 188 0
	subl	$1, %edi	#, i
.LVL709:
	jns	.L505	#,
	.loc 14 199 0
	movl	12(%esp), %ebx	# %sfp, leaf_let_ptr
	testl	%ebx, %ebx	# leaf_let_ptr
	je	.L509	#,
	.loc 14 204 0
	movl	$0, (%ebx)	#, *leaf_let_ptr_83
.LVL710:
	.loc 14 208 0
	movl	16(%eax), %ecx	# node_2(D)->map, D.6092
	movl	%ecx, 16(%edx)	# D.6092, node_90->map
.LVL711:
	movl	20(%eax), %ecx	# MEM[(struct tommy_trie_inplace_node *)node_2(D) + 20B], D.6092
	movl	%ecx, 20(%edx)	# D.6092, MEM[(struct tommy_trie_inplace_node *)node_90 + 20B]
.LVL712:
	movl	24(%eax), %ecx	# MEM[(struct tommy_trie_inplace_node *)node_2(D) + 24B], D.6092
	movl	%ecx, 24(%edx)	# D.6092, MEM[(struct tommy_trie_inplace_node *)node_90 + 24B]
.LVL713:
	movl	28(%eax), %ecx	# MEM[(struct tommy_trie_inplace_node *)node_2(D) + 28B], D.6092
	movl	%ecx, 28(%edx)	# D.6092, MEM[(struct tommy_trie_inplace_node *)node_90 + 28B]
.LVL714:
	.loc 14 212 0
	movl	%edx, 0(%ebp)	# node, *let_ptr_89
	jmp	.L509	#
.LVL715:
	.p2align 4,,10
	.p2align 3
.L528:
.LBB653:
.LBB652:
	.loc 14 92 0
	movl	%edx, 0(%ebp)	# D.6091, *let_ptr_89
	jmp	.L503	#
.L527:
	.loc 14 87 0
	movl	4(%eax), %ecx	# node_2(D)->prev, D.6092
	movl	%ecx, 4(%ebx)	# D.6092, head_26->prev
	jmp	.L501	#
.LVL716:
.L498:
.LBE652:
.LBE653:
.LBE655:
.LBE657:
	.loc 14 240 0
	leal	(%esi,%edx,4), %ebp	#, let_ptr
	jmp	.L500	#
	.cfi_endproc
.LFE107:
	.size	tommy_trie_inplace_remove_existing, .-tommy_trie_inplace_remove_existing
	.section	.text.unlikely
.LCOLDE43:
	.text
.LHOTE43:
	.section	.text.unlikely
.LCOLDB44:
	.text
.LHOTB44:
	.p2align 4,,15
	.globl	tommy_trie_inplace_bucket
	.type	tommy_trie_inplace_bucket, @function
tommy_trie_inplace_bucket:
.LFB108:
	.loc 14 253 0
	.cfi_startproc
.LVL717:
	pushl	%ebx	#
	.cfi_def_cfa_offset 8
	.cfi_offset 3, -8
	.loc 14 253 0
	movl	12(%esp), %ebx	# key, key
	.loc 14 257 0
	movl	8(%esp), %eax	# trie_inplace, trie_inplace
	movl	%ebx, %edx	# key, D.6100
	shrl	$26, %edx	#, D.6100
	movl	(%eax,%edx,4), %eax	# trie_inplace_6(D)->bucket, node
.LVL718:
	.loc 14 260 0
	testl	%eax, %eax	# node
	je	.L532	#,
	cmpl	%ebx, 12(%eax)	# key, node_7->key
	je	.L532	#,
	movl	$26, %ecx	#, shift
	jmp	.L533	#
.LVL719:
	.p2align 4,,10
	.p2align 3
.L542:
	.loc 14 260 0 is_stmt 0 discriminator 1
	cmpl	%ebx, 12(%eax)	# key, node_12->key
	je	.L532	#,
.LVL720:
.L533:
	.loc 14 261 0 is_stmt 1
	movl	%ebx, %edx	# key, D.6100
	shrl	%cl, %edx	# shift, D.6100
	.loc 14 262 0
	subl	$2, %ecx	#, shift
.LVL721:
	.loc 14 261 0
	andl	$3, %edx	#, D.6100
	movl	16(%eax,%edx,4), %eax	# node_19->map, node
.LVL722:
	.loc 14 260 0
	testl	%eax, %eax	# node
	jne	.L542	#,
.LVL723:
.L532:
	.loc 14 266 0
	popl	%ebx	#
	.cfi_restore 3
	.cfi_def_cfa_offset 4
.LVL724:
	ret
	.cfi_endproc
.LFE108:
	.size	tommy_trie_inplace_bucket, .-tommy_trie_inplace_bucket
	.section	.text.unlikely
.LCOLDE44:
	.text
.LHOTE44:
	.section	.text.unlikely
.LCOLDB45:
	.text
.LHOTB45:
	.p2align 4,,15
	.globl	tommy_trie_inplace_memory_usage
	.type	tommy_trie_inplace_memory_usage, @function
tommy_trie_inplace_memory_usage:
.LFB109:
	.loc 14 269 0
	.cfi_startproc
.LVL725:
	.loc 14 270 0
	movl	4(%esp), %eax	# trie_inplace, trie_inplace
	movl	256(%eax), %eax	# MEM[(unsigned int *)trie_inplace_2(D) + 256B], MEM[(unsigned int *)trie_inplace_2(D) + 256B]
	sall	$5, %eax	#, D.6105
	.loc 14 271 0
	ret
	.cfi_endproc
.LFE109:
	.size	tommy_trie_inplace_memory_usage, .-tommy_trie_inplace_memory_usage
	.section	.text.unlikely
.LCOLDE45:
	.text
.LHOTE45:
	.section	.text.unlikely
.LCOLDB46:
	.text
.LHOTB46:
	.p2align 4,,15
	.globl	tommy_hashtable_init
	.type	tommy_hashtable_init, @function
tommy_hashtable_init:
.LFB113:
	.file 15 "tommyhashtbl.c"
	.loc 15 37 0
	.cfi_startproc
.LVL726:
	pushl	%esi	#
	.cfi_def_cfa_offset 8
	.cfi_offset 6, -8
	pushl	%ebx	#
	.cfi_def_cfa_offset 12
	.cfi_offset 3, -12
	subl	$4, %esp	#,
	.cfi_def_cfa_offset 16
	.loc 15 37 0
	movl	20(%esp), %eax	# bucket_max, bucket_max
	movl	16(%esp), %ebx	# hashtable, hashtable
	.loc 15 38 0
	cmpl	$15, %eax	#, bucket_max
	jbe	.L546	#,
.LVL727:
.LBB658:
.LBB659:
	.loc 6 373 0
	subl	$1, %eax	#, value
.LVL728:
	.loc 6 374 0
	movl	%eax, %edx	# value, D.6111
	shrl	%edx	# D.6111
	orl	%edx, %eax	# D.6111, value
.LVL729:
	.loc 6 375 0
	movl	%eax, %edx	# value, D.6111
	shrl	$2, %edx	#, D.6111
	orl	%edx, %eax	# D.6111, value
.LVL730:
	.loc 6 376 0
	movl	%eax, %edx	# value, D.6111
	shrl	$4, %edx	#, D.6111
	orl	%edx, %eax	# D.6111, value
.LVL731:
	.loc 6 377 0
	movl	%eax, %edx	# value, D.6111
	shrl	$8, %edx	#, D.6111
	orl	%edx, %eax	# D.6111, value
.LVL732:
	.loc 6 378 0
	movl	%eax, %edx	# value, D.6111
	shrl	$16, %edx	#, D.6111
	orl	%edx, %eax	# D.6111, value
.LVL733:
	.loc 6 379 0
	leal	1(%eax), %edx	#, bucket_max
.LVL734:
	leal	0(,%edx,4), %esi	#, D.6111
.LVL735:
.L545:
.LBE659:
.LBE658:
	.loc 15 46 0
	subl	$12, %esp	#,
	.cfi_def_cfa_offset 28
	.loc 15 44 0
	movl	%edx, 4(%ebx)	# bucket_max, hashtable_4(D)->bucket_max
	.loc 15 45 0
	movl	%eax, 8(%ebx)	# D.6111, hashtable_4(D)->bucket_mask
	.loc 15 46 0
	pushl	%esi	# D.6111
	.cfi_def_cfa_offset 32
	call	malloc	#
.LVL736:
	.loc 15 47 0
	addl	$12, %esp	#,
	.cfi_def_cfa_offset 20
	.loc 15 46 0
	movl	%eax, (%ebx)	# tmp100, hashtable_4(D)->bucket
	.loc 15 47 0
	pushl	%esi	# D.6111
	.cfi_def_cfa_offset 24
	pushl	$0	#
	.cfi_def_cfa_offset 28
	pushl	%eax	# tmp100
	.cfi_def_cfa_offset 32
	call	memset	#
.LVL737:
	.loc 15 49 0
	movl	$0, 12(%ebx)	#, hashtable_4(D)->count
	.loc 15 50 0
	addl	$20, %esp	#,
	.cfi_def_cfa_offset 12
	popl	%ebx	#
	.cfi_restore 3
	.cfi_def_cfa_offset 8
	popl	%esi	#
	.cfi_restore 6
	.cfi_def_cfa_offset 4
	ret
.LVL738:
	.p2align 4,,10
	.p2align 3
.L546:
	.cfi_def_cfa_offset 16
	.cfi_offset 3, -12
	.cfi_offset 6, -8
	movl	$64, %esi	#, D.6111
	movl	$15, %eax	#, D.6111
	.loc 15 39 0
	movl	$16, %edx	#, bucket_max
	jmp	.L545	#
	.cfi_endproc
.LFE113:
	.size	tommy_hashtable_init, .-tommy_hashtable_init
	.section	.text.unlikely
.LCOLDE46:
	.text
.LHOTE46:
	.section	.text.unlikely
.LCOLDB47:
	.text
.LHOTB47:
	.p2align 4,,15
	.globl	tommy_hashtable_done
	.type	tommy_hashtable_done, @function
tommy_hashtable_done:
.LFB114:
	.loc 15 53 0
	.cfi_startproc
.LVL739:
	.loc 15 54 0
	movl	4(%esp), %eax	# hashtable, hashtable
	movl	(%eax), %eax	# hashtable_2(D)->bucket, hashtable_2(D)->bucket
	movl	%eax, 4(%esp)	# hashtable_2(D)->bucket,
.LVL740:
	jmp	free	#
.LVL741:
	.cfi_endproc
.LFE114:
	.size	tommy_hashtable_done, .-tommy_hashtable_done
	.section	.text.unlikely
.LCOLDE47:
	.text
.LHOTE47:
	.section	.text.unlikely
.LCOLDB48:
	.text
.LHOTB48:
	.p2align 4,,15
	.globl	tommy_hashtable_insert
	.type	tommy_hashtable_insert, @function
tommy_hashtable_insert:
.LFB115:
	.loc 15 58 0
	.cfi_startproc
.LVL742:
	pushl	%esi	#
	.cfi_def_cfa_offset 8
	.cfi_offset 6, -8
	pushl	%ebx	#
	.cfi_def_cfa_offset 12
	.cfi_offset 3, -12
	.loc 15 58 0
	movl	12(%esp), %edx	# hashtable, hashtable
	movl	24(%esp), %ebx	# hash, hash
.LVL743:
	movl	16(%esp), %eax	# node, node
	.loc 15 59 0
	movl	8(%edx), %esi	# hashtable_2(D)->bucket_mask, pos
	.loc 15 61 0
	movl	(%edx), %ecx	# hashtable_2(D)->bucket, hashtable_2(D)->bucket
	.loc 15 59 0
	andl	%ebx, %esi	# hash, pos
.LVL744:
	.loc 15 61 0
	leal	(%ecx,%esi,4), %esi	#, D.6121
.LVL745:
	movl	(%esi), %ecx	# *_8, D.6122
.LVL746:
.LBB660:
.LBB661:
	.loc 2 227 0
	testl	%ecx, %ecx	# D.6122
	je	.L550	#,
.LVL747:
.LBB662:
.LBB663:
	.loc 2 192 0
	movl	4(%ecx), %esi	# MEM[(struct tommy_node_struct * *)_16 + 4B], D.6123
.LVL748:
	movl	%esi, 4(%eax)	# D.6123, MEM[(struct tommy_node *)node_9(D)].prev
.LVL749:
	.loc 2 193 0
	movl	%eax, 4(%ecx)	# node, MEM[(struct tommy_node_struct * *)_16 + 4B]
	.loc 2 197 0
	movl	4(%eax), %ecx	# MEM[(struct tommy_node *)node_9(D)].prev, MEM[(struct tommy_node *)node_9(D)].prev
	.loc 2 196 0
	movl	$0, (%eax)	#, MEM[(struct tommy_node *)node_9(D)].next
	.loc 2 197 0
	movl	%eax, (%ecx)	# node, _18->next
.LVL750:
.L551:
.LBE663:
.LBE662:
	.loc 2 233 0
	movl	20(%esp), %ecx	# data, data
.LBE661:
.LBE660:
	.loc 15 63 0
	movl	%ebx, 12(%eax)	# hash, node_9(D)->key
.LBB668:
.LBB666:
	.loc 2 233 0
	movl	%ecx, 8(%eax)	# data, MEM[(struct tommy_node *)node_9(D)].data
.LBE666:
.LBE668:
	.loc 15 65 0
	addl	$1, 12(%edx)	#, hashtable_2(D)->count
	.loc 15 66 0
	popl	%ebx	#
	.cfi_remember_state
	.cfi_restore 3
	.cfi_def_cfa_offset 8
	popl	%esi	#
	.cfi_restore 6
	.cfi_def_cfa_offset 4
	ret
.LVL751:
	.p2align 4,,10
	.p2align 3
.L550:
	.cfi_restore_state
.LBB669:
.LBB667:
.LBB664:
.LBB665:
	.loc 2 155 0
	movl	%eax, 4(%eax)	# node, MEM[(struct tommy_node *)node_9(D)].prev
.LVL752:
	.loc 2 158 0
	movl	$0, (%eax)	#, MEM[(struct tommy_node *)node_9(D)].next
	.loc 2 160 0
	movl	%eax, (%esi)	# node, *_8
	jmp	.L551	#
.LBE665:
.LBE664:
.LBE667:
.LBE669:
	.cfi_endproc
.LFE115:
	.size	tommy_hashtable_insert, .-tommy_hashtable_insert
	.section	.text.unlikely
.LCOLDE48:
	.text
.LHOTE48:
	.section	.text.unlikely
.LCOLDB49:
	.text
.LHOTB49:
	.p2align 4,,15
	.globl	tommy_hashtable_remove_existing
	.type	tommy_hashtable_remove_existing, @function
tommy_hashtable_remove_existing:
.LFB116:
	.loc 15 69 0
	.cfi_startproc
.LVL753:
	pushl	%edi	#
	.cfi_def_cfa_offset 8
	.cfi_offset 7, -8
	pushl	%esi	#
	.cfi_def_cfa_offset 12
	.cfi_offset 6, -12
	pushl	%ebx	#
	.cfi_def_cfa_offset 16
	.cfi_offset 3, -16
	.loc 15 69 0
	movl	20(%esp), %eax	# node, node
	movl	16(%esp), %edx	# hashtable, hashtable
.LVL754:
.LBB670:
.LBB671:
	.loc 2 268 0
	movl	4(%eax), %edi	# MEM[(struct tommy_node *)node_2(D)].prev, tmp107
.LBE671:
.LBE670:
	.loc 15 70 0
	movl	8(%edx), %ecx	# hashtable_4(D)->bucket_mask, hashtable_4(D)->bucket_mask
	andl	12(%eax), %ecx	# node_2(D)->key, pos
.LVL755:
	.loc 15 72 0
	movl	(%edx), %ebx	# hashtable_4(D)->bucket, hashtable_4(D)->bucket
	leal	(%ebx,%ecx,4), %esi	#, D.6128
.LVL756:
.LBB675:
.LBB672:
	.loc 2 267 0
	movl	(%eax), %ecx	# MEM[(struct tommy_node *)node_2(D)].next, D.6131
.LVL757:
	movl	(%esi), %ebx	# *_9, D.6130
.LVL758:
	testl	%ecx, %ecx	# D.6131
	je	.L554	#,
	.loc 2 274 0
	cmpl	%ebx, %eax	# D.6130, node
	.loc 2 268 0
	movl	%edi, 4(%ecx)	# tmp107, _16->prev
.LVL759:
	.loc 2 274 0
	je	.L559	#,
.L556:
	.loc 2 277 0
	movl	4(%eax), %ebx	# MEM[(struct tommy_node *)node_2(D)].prev, MEM[(struct tommy_node *)node_2(D)].prev
.LBE672:
.LBE675:
	.loc 15 76 0
	movl	8(%eax), %eax	# node_2(D)->data, node_2(D)->data
.LBB676:
.LBB673:
	.loc 2 277 0
	movl	%ecx, (%ebx)	# D.6131, _19->next
.LBE673:
.LBE676:
	.loc 15 74 0
	subl	$1, 12(%edx)	#, hashtable_4(D)->count
	.loc 15 77 0
	popl	%ebx	#
	.cfi_remember_state
	.cfi_restore 3
	.cfi_def_cfa_offset 12
	popl	%esi	#
	.cfi_restore 6
	.cfi_def_cfa_offset 8
.LVL760:
	popl	%edi	#
	.cfi_restore 7
	.cfi_def_cfa_offset 4
	ret
.LVL761:
	.p2align 4,,10
	.p2align 3
.L554:
	.cfi_restore_state
.LBB677:
.LBB674:
	.loc 2 274 0
	cmpl	%ebx, %eax	# D.6130, node
	.loc 2 270 0
	movl	%edi, 4(%ebx)	# tmp108, _15->prev
.LVL762:
	.loc 2 274 0
	jne	.L556	#,
	.p2align 4,,10
	.p2align 3
.L559:
	.loc 2 275 0
	movl	%ecx, (%esi)	# D.6131, *_9
.LBE674:
.LBE677:
	.loc 15 74 0
	subl	$1, 12(%edx)	#, hashtable_4(D)->count
	.loc 15 77 0
	popl	%ebx	#
	.cfi_restore 3
	.cfi_def_cfa_offset 12
	.loc 15 76 0
	movl	8(%eax), %eax	# node_2(D)->data, node_2(D)->data
.LVL763:
	.loc 15 77 0
	popl	%esi	#
	.cfi_restore 6
	.cfi_def_cfa_offset 8
.LVL764:
	popl	%edi	#
	.cfi_restore 7
	.cfi_def_cfa_offset 4
	ret
	.cfi_endproc
.LFE116:
	.size	tommy_hashtable_remove_existing, .-tommy_hashtable_remove_existing
	.section	.text.unlikely
.LCOLDE49:
	.text
.LHOTE49:
	.section	.text.unlikely
.LCOLDB50:
	.text
.LHOTB50:
	.p2align 4,,15
	.globl	tommy_hashtable_remove
	.type	tommy_hashtable_remove, @function
tommy_hashtable_remove:
.LFB117:
	.loc 15 80 0
	.cfi_startproc
.LVL765:
	pushl	%ebp	#
	.cfi_def_cfa_offset 8
	.cfi_offset 5, -8
	pushl	%edi	#
	.cfi_def_cfa_offset 12
	.cfi_offset 7, -12
	pushl	%esi	#
	.cfi_def_cfa_offset 16
	.cfi_offset 6, -16
	pushl	%ebx	#
	.cfi_def_cfa_offset 20
	.cfi_offset 3, -20
	subl	$28, %esp	#,
	.cfi_def_cfa_offset 48
	.loc 15 80 0
	movl	48(%esp), %edi	# hashtable, hashtable
	movl	60(%esp), %ebx	# hash, hash
.LVL766:
	movl	52(%esp), %esi	# cmp, cmp
	.loc 15 81 0
	movl	8(%edi), %eax	# hashtable_7(D)->bucket_mask, pos
	.loc 15 82 0
	movl	(%edi), %edx	# hashtable_7(D)->bucket, hashtable_7(D)->bucket
	.loc 15 81 0
	andl	%ebx, %eax	# hash, pos
.LVL767:
	.loc 15 82 0
	movl	(%edx,%eax,4), %ebp	# *_13, i
.LVL768:
	leal	0(,%eax,4), %ecx	#, D.6135
	movl	%ecx, 12(%esp)	# D.6135, %sfp
	.loc 15 84 0
	testl	%ebp, %ebp	# i
	jne	.L570	#,
	jmp	.L569	#
.LVL769:
	.p2align 4,,10
	.p2align 3
.L563:
	.loc 15 94 0
	movl	0(%ebp), %ebp	# i_43->next, i
.LVL770:
	.loc 15 84 0
	testl	%ebp, %ebp	# i
	je	.L569	#,
.L570:
	.loc 15 86 0
	cmpl	%ebx, 12(%ebp)	# hash, i_43->key
	jne	.L563	#,
	.loc 15 86 0 is_stmt 0 discriminator 1
	subl	$8, %esp	#,
	.cfi_def_cfa_offset 56
	pushl	8(%ebp)	# i_43->data
	.cfi_def_cfa_offset 60
	pushl	68(%esp)	# cmp_arg
	.cfi_def_cfa_offset 64
	call	*%esi	# cmp
.LVL771:
	addl	$16, %esp	#,
	.cfi_def_cfa_offset 48
	testl	%eax, %eax	# D.6137
	jne	.L563	#,
	.loc 15 87 0 is_stmt 1
	movl	12(%esp), %edx	# %sfp, D.6138
.LBB678:
.LBB679:
	.loc 2 267 0
	movl	0(%ebp), %eax	# MEM[(struct tommy_node *)i_47].next, D.6140
.LBE679:
.LBE678:
	.loc 15 87 0
	addl	(%edi), %edx	# hashtable_7(D)->bucket, D.6138
.LVL772:
.LBB682:
.LBB680:
	.loc 2 268 0
	movl	4(%ebp), %ebx	# MEM[(struct tommy_node *)i_47].prev, D.6140
	.loc 2 267 0
	testl	%eax, %eax	# D.6140
	movl	(%edx), %ecx	# *_23, D.6139
.LVL773:
	je	.L564	#,
	.loc 2 268 0
	movl	%ebx, 4(%eax)	# D.6140, _30->prev
.L565:
	.loc 2 274 0
	cmpl	%ebp, %ecx	# i, D.6139
	je	.L573	#,
	.loc 2 277 0
	movl	4(%ebp), %ecx	# MEM[(struct tommy_node *)i_47].prev, MEM[(struct tommy_node *)i_47].prev
	movl	%eax, (%ecx)	# D.6140, _33->next
.L567:
.LBE680:
.LBE682:
	.loc 15 89 0
	subl	$1, 12(%edi)	#, hashtable_7(D)->count
	.loc 15 91 0
	movl	8(%ebp), %eax	# i_47->data, D.6134
	.loc 15 98 0
	addl	$28, %esp	#,
	.cfi_remember_state
	.cfi_def_cfa_offset 20
	popl	%ebx	#
	.cfi_restore 3
	.cfi_def_cfa_offset 16
	popl	%esi	#
	.cfi_restore 6
	.cfi_def_cfa_offset 12
	popl	%edi	#
	.cfi_restore 7
	.cfi_def_cfa_offset 8
	popl	%ebp	#
	.cfi_restore 5
	.cfi_def_cfa_offset 4
.LVL774:
	ret
.LVL775:
	.p2align 4,,10
	.p2align 3
.L569:
	.cfi_restore_state
	addl	$28, %esp	#,
	.cfi_remember_state
	.cfi_def_cfa_offset 20
	.loc 15 97 0
	xorl	%eax, %eax	# D.6134
	.loc 15 98 0
	popl	%ebx	#
	.cfi_restore 3
	.cfi_def_cfa_offset 16
	popl	%esi	#
	.cfi_restore 6
	.cfi_def_cfa_offset 12
	popl	%edi	#
	.cfi_restore 7
	.cfi_def_cfa_offset 8
	popl	%ebp	#
	.cfi_restore 5
	.cfi_def_cfa_offset 4
.LVL776:
	ret
.LVL777:
.L564:
	.cfi_restore_state
.LBB683:
.LBB681:
	.loc 2 270 0
	movl	%ebx, 4(%ecx)	# D.6140, _29->prev
	jmp	.L565	#
.L573:
	.loc 2 275 0
	movl	%eax, (%edx)	# D.6140, *_23
	jmp	.L567	#
.LBE681:
.LBE683:
	.cfi_endproc
.LFE117:
	.size	tommy_hashtable_remove, .-tommy_hashtable_remove
	.section	.text.unlikely
.LCOLDE50:
	.text
.LHOTE50:
	.section	.text.unlikely
.LCOLDB51:
	.text
.LHOTB51:
	.p2align 4,,15
	.globl	tommy_hashtable_memory_usage
	.type	tommy_hashtable_memory_usage, @function
tommy_hashtable_memory_usage:
.LFB118:
	.loc 15 101 0
	.cfi_startproc
.LVL778:
	.loc 15 101 0
	movl	4(%esp), %eax	# hashtable, hashtable
	.loc 15 103 0
	movl	12(%eax), %edx	# MEM[(unsigned int *)hashtable_2(D) + 12B], MEM[(unsigned int *)hashtable_2(D) + 12B]
	movl	4(%eax), %eax	# hashtable_2(D)->bucket_max, hashtable_2(D)->bucket_max
	leal	(%eax,%edx,4), %eax	#, D.6143
	.loc 15 102 0
	sall	$2, %eax	#, D.6144
	.loc 15 104 0
	ret
	.cfi_endproc
.LFE118:
	.size	tommy_hashtable_memory_usage, .-tommy_hashtable_memory_usage
	.section	.text.unlikely
.LCOLDE51:
	.text
.LHOTE51:
	.section	.text.unlikely
.LCOLDB52:
	.text
.LHOTB52:
	.p2align 4,,15
	.globl	tommy_hashdyn_init
	.type	tommy_hashdyn_init, @function
tommy_hashdyn_init:
.LFB122:
	.loc 1 37 0
	.cfi_startproc
.LVL779:
	pushl	%edi	#
	.cfi_def_cfa_offset 8
	.cfi_offset 7, -8
	pushl	%ebx	#
	.cfi_def_cfa_offset 12
	.cfi_offset 3, -12
	subl	$16, %esp	#,
	.cfi_def_cfa_offset 28
	.loc 1 37 0
	movl	28(%esp), %ebx	# hashdyn, hashdyn
	.loc 1 39 0
	movl	$4, 4(%ebx)	#, hashdyn_2(D)->bucket_bit
	.loc 1 40 0
	movl	$16, 8(%ebx)	#, hashdyn_2(D)->bucket_max
	.loc 1 41 0
	movl	$15, 12(%ebx)	#, hashdyn_2(D)->bucket_mask
	.loc 1 42 0
	pushl	$64	#
	.cfi_def_cfa_offset 32
	call	malloc	#
.LVL780:
	movl	%eax, %edx	#, tmp85
	movl	%eax, (%ebx)	# tmp85, hashdyn_2(D)->bucket
	.loc 1 43 0
	movl	$16, %ecx	#, tmp88
	xorl	%eax, %eax	# tmp87
	movl	%edx, %edi	# tmp85, D.6149
	.loc 1 45 0
	movl	$0, 16(%ebx)	#, hashdyn_2(D)->count
	.loc 1 43 0
	rep stosl
	.loc 1 46 0
	addl	$20, %esp	#,
	.cfi_def_cfa_offset 12
	popl	%ebx	#
	.cfi_restore 3
	.cfi_def_cfa_offset 8
	popl	%edi	#
	.cfi_restore 7
	.cfi_def_cfa_offset 4
	ret
	.cfi_endproc
.LFE122:
	.size	tommy_hashdyn_init, .-tommy_hashdyn_init
	.section	.text.unlikely
.LCOLDE52:
	.text
.LHOTE52:
	.section	.text.unlikely
.LCOLDB53:
	.text
.LHOTB53:
	.p2align 4,,15
	.globl	tommy_hashdyn_done
	.type	tommy_hashdyn_done, @function
tommy_hashdyn_done:
.LFB123:
	.loc 1 49 0
	.cfi_startproc
.LVL781:
	.loc 1 50 0
	movl	4(%esp), %eax	# hashdyn, hashdyn
	movl	(%eax), %eax	# hashdyn_2(D)->bucket, hashdyn_2(D)->bucket
	movl	%eax, 4(%esp)	# hashdyn_2(D)->bucket,
.LVL782:
	jmp	free	#
.LVL783:
	.cfi_endproc
.LFE123:
	.size	tommy_hashdyn_done, .-tommy_hashdyn_done
	.section	.text.unlikely
.LCOLDE53:
	.text
.LHOTE53:
	.section	.text.unlikely
.LCOLDB54:
	.text
.LHOTB54:
	.p2align 4,,15
	.globl	tommy_hashdyn_insert
	.type	tommy_hashdyn_insert, @function
tommy_hashdyn_insert:
.LFB127:
	.loc 1 140 0
	.cfi_startproc
.LVL784:
	pushl	%edi	#
	.cfi_def_cfa_offset 8
	.cfi_offset 7, -8
	pushl	%esi	#
	.cfi_def_cfa_offset 12
	.cfi_offset 6, -12
	pushl	%ebx	#
	.cfi_def_cfa_offset 16
	.cfi_offset 3, -16
	.loc 1 140 0
	movl	16(%esp), %eax	# hashdyn, hashdyn
	movl	28(%esp), %ebx	# hash, hash
.LVL785:
	movl	20(%esp), %edx	# node, node
	movl	24(%esp), %edi	# data, data
	.loc 1 141 0
	movl	12(%eax), %esi	# hashdyn_2(D)->bucket_mask, pos
	.loc 1 143 0
	movl	(%eax), %ecx	# hashdyn_2(D)->bucket, hashdyn_2(D)->bucket
	.loc 1 141 0
	andl	%ebx, %esi	# hash, pos
.LVL786:
	.loc 1 143 0
	leal	(%ecx,%esi,4), %esi	#, D.6158
.LVL787:
	movl	(%esi), %ecx	# *_8, D.6159
.LVL788:
.LBB692:
.LBB693:
	.loc 2 227 0
	testl	%ecx, %ecx	# D.6159
	je	.L579	#,
.LVL789:
.LBB694:
.LBB695:
	.loc 2 192 0
	movl	4(%ecx), %esi	# MEM[(struct tommy_node_struct * *)_17 + 4B], D.6160
.LVL790:
	movl	%esi, 4(%edx)	# D.6160, MEM[(struct tommy_node *)node_9(D)].prev
.LVL791:
	.loc 2 193 0
	movl	%edx, 4(%ecx)	# node, MEM[(struct tommy_node_struct * *)_17 + 4B]
	.loc 2 197 0
	movl	4(%edx), %ecx	# MEM[(struct tommy_node *)node_9(D)].prev, MEM[(struct tommy_node *)node_9(D)].prev
	.loc 2 196 0
	movl	$0, (%edx)	#, MEM[(struct tommy_node *)node_9(D)].next
	.loc 2 197 0
	movl	%edx, (%ecx)	# node, _19->next
.LVL792:
.L580:
.LBE695:
.LBE694:
	.loc 2 233 0
	movl	%edi, 8(%edx)	# data, MEM[(struct tommy_node *)node_9(D)].data
.LBE693:
.LBE692:
	.loc 1 147 0
	movl	16(%eax), %edi	# hashdyn_2(D)->count, tmp111
.LBB699:
.LBB700:
	.loc 1 123 0
	movl	8(%eax), %ecx	# hashdyn_2(D)->bucket_max, D.6156
.LBE700:
.LBE699:
	.loc 1 145 0
	movl	%ebx, 12(%edx)	# hash, node_9(D)->key
	.loc 1 147 0
	leal	1(%edi), %edx	#, D.6156
.LVL793:
.LBB705:
.LBB701:
	.loc 1 123 0
	shrl	%ecx	# D.6156
	cmpl	%ecx, %edx	# D.6156, D.6156
.LBE701:
.LBE705:
	.loc 1 147 0
	movl	%edx, 16(%eax)	# D.6156, hashdyn_2(D)->count
.LVL794:
.LBB706:
.LBB702:
	.loc 1 123 0
	jae	.L583	#,
.LVL795:
.LBE702:
.LBE706:
	.loc 1 150 0
	popl	%ebx	#
	.cfi_remember_state
	.cfi_restore 3
	.cfi_def_cfa_offset 12
.LVL796:
	popl	%esi	#
	.cfi_restore 6
	.cfi_def_cfa_offset 8
	popl	%edi	#
	.cfi_restore 7
	.cfi_def_cfa_offset 4
	ret
.LVL797:
	.p2align 4,,10
	.p2align 3
.L583:
	.cfi_restore_state
.LBB707:
.LBB703:
	.loc 1 124 0
	movl	4(%eax), %ebx	# hashdyn_2(D)->bucket_bit, tmp113
.LVL798:
	leal	1(%ebx), %edx	#, D.6156
.LBE703:
.LBE707:
	.loc 1 150 0
	popl	%ebx	#
	.cfi_remember_state
	.cfi_restore 3
	.cfi_def_cfa_offset 12
	popl	%esi	#
	.cfi_restore 6
	.cfi_def_cfa_offset 8
	popl	%edi	#
	.cfi_restore 7
	.cfi_def_cfa_offset 4
.LBB708:
.LBB704:
	.loc 1 124 0
	jmp	tommy_hashdyn_resize	#
.LVL799:
	.p2align 4,,10
	.p2align 3
.L579:
	.cfi_restore_state
.LBE704:
.LBE708:
.LBB709:
.LBB698:
.LBB696:
.LBB697:
	.loc 2 155 0
	movl	%edx, 4(%edx)	# node, MEM[(struct tommy_node *)node_9(D)].prev
.LVL800:
	.loc 2 158 0
	movl	$0, (%edx)	#, MEM[(struct tommy_node *)node_9(D)].next
	.loc 2 160 0
	movl	%edx, (%esi)	# node, *_8
	jmp	.L580	#
.LBE697:
.LBE696:
.LBE698:
.LBE709:
	.cfi_endproc
.LFE127:
	.size	tommy_hashdyn_insert, .-tommy_hashdyn_insert
	.section	.text.unlikely
.LCOLDE54:
	.text
.LHOTE54:
	.section	.text.unlikely
.LCOLDB55:
	.text
.LHOTB55:
	.p2align 4,,15
	.globl	tommy_hashdyn_remove_existing
	.type	tommy_hashdyn_remove_existing, @function
tommy_hashdyn_remove_existing:
.LFB128:
	.loc 1 153 0
	.cfi_startproc
.LVL801:
	pushl	%edi	#
	.cfi_def_cfa_offset 8
	.cfi_offset 7, -8
	pushl	%esi	#
	.cfi_def_cfa_offset 12
	.cfi_offset 6, -12
	pushl	%ebx	#
	.cfi_def_cfa_offset 16
	.cfi_offset 3, -16
	.loc 1 153 0
	movl	20(%esp), %ebx	# node, node
	movl	16(%esp), %eax	# hashdyn, hashdyn
.LVL802:
.LBB716:
.LBB717:
	.loc 2 268 0
	movl	4(%ebx), %edi	# MEM[(struct tommy_node *)node_2(D)].prev, tmp115
.LBE717:
.LBE716:
	.loc 1 154 0
	movl	12(%eax), %edx	# hashdyn_4(D)->bucket_mask, hashdyn_4(D)->bucket_mask
	andl	12(%ebx), %edx	# node_2(D)->key, pos
.LVL803:
	.loc 1 156 0
	movl	(%eax), %ecx	# hashdyn_4(D)->bucket, hashdyn_4(D)->bucket
	leal	(%ecx,%edx,4), %ecx	#, D.6166
.LVL804:
.LBB721:
.LBB718:
	.loc 2 267 0
	movl	(%ebx), %edx	# MEM[(struct tommy_node *)node_2(D)].next, D.6169
.LVL805:
	movl	(%ecx), %esi	# *_9, D.6168
.LVL806:
	testl	%edx, %edx	# D.6169
	je	.L585	#,
	.loc 2 268 0
	movl	%edi, 4(%edx)	# tmp115, _16->prev
.LVL807:
.L586:
	.loc 2 274 0
	cmpl	%esi, %ebx	# D.6168, node
	je	.L591	#,
	.loc 2 277 0
	movl	4(%ebx), %ecx	# MEM[(struct tommy_node *)node_2(D)].prev, MEM[(struct tommy_node *)node_2(D)].prev
.LVL808:
.L591:
.LBE718:
.LBE721:
	.loc 1 158 0
	movl	16(%eax), %esi	# hashdyn_4(D)->count, tmp117
.LBB722:
.LBB719:
	.loc 2 277 0
	movl	%edx, (%ecx)	# D.6169,* MEM[(struct tommy_node *)node_2(D)].prev
.LVL809:
.LBE719:
.LBE722:
.LBB723:
.LBB724:
	.loc 1 134 0
	movl	8(%eax), %ecx	# hashdyn_4(D)->bucket_max, D.6164
.LBE724:
.LBE723:
	.loc 1 158 0
	leal	-1(%esi), %edx	#, D.6164
.LBB730:
.LBB727:
	.loc 1 134 0
	shrl	$3, %ecx	#, D.6164
	cmpl	%ecx, %edx	# D.6164, D.6164
.LBE727:
.LBE730:
	.loc 1 158 0
	movl	%edx, 16(%eax)	# D.6164, hashdyn_4(D)->count
.LVL810:
.LBB731:
.LBB728:
	.loc 1 134 0
	jbe	.L592	#,
.L589:
.LBE728:
.LBE731:
	.loc 1 162 0
	movl	8(%ebx), %eax	# node_2(D)->data, node_2(D)->data
.LVL811:
	.loc 1 163 0
	popl	%ebx	#
	.cfi_remember_state
	.cfi_restore 3
	.cfi_def_cfa_offset 12
.LVL812:
	popl	%esi	#
	.cfi_restore 6
	.cfi_def_cfa_offset 8
	popl	%edi	#
	.cfi_restore 7
	.cfi_def_cfa_offset 4
	ret
.LVL813:
	.p2align 4,,10
	.p2align 3
.L592:
	.cfi_restore_state
.LBB732:
.LBB729:
.LBB725:
.LBB726:
	.loc 1 134 0
	movl	4(%eax), %edx	# hashdyn_4(D)->bucket_bit, D.6164
	cmpl	$4, %edx	#, D.6164
	jbe	.L589	#,
	.loc 1 135 0
	subl	$1, %edx	#, D.6164
	call	tommy_hashdyn_resize	#
.LVL814:
.LBE726:
.LBE725:
.LBE729:
.LBE732:
	.loc 1 162 0
	movl	8(%ebx), %eax	# node_2(D)->data, node_2(D)->data
	.loc 1 163 0
	popl	%ebx	#
	.cfi_remember_state
	.cfi_restore 3
	.cfi_def_cfa_offset 12
.LVL815:
	popl	%esi	#
	.cfi_restore 6
	.cfi_def_cfa_offset 8
	popl	%edi	#
	.cfi_restore 7
	.cfi_def_cfa_offset 4
	ret
.LVL816:
	.p2align 4,,10
	.p2align 3
.L585:
	.cfi_restore_state
.LBB733:
.LBB720:
	.loc 2 270 0
	movl	%edi, 4(%esi)	# tmp116, _15->prev
.LVL817:
	jmp	.L586	#
.LBE720:
.LBE733:
	.cfi_endproc
.LFE128:
	.size	tommy_hashdyn_remove_existing, .-tommy_hashdyn_remove_existing
	.section	.text.unlikely
.LCOLDE55:
	.text
.LHOTE55:
	.section	.text.unlikely
.LCOLDB56:
	.text
.LHOTB56:
	.p2align 4,,15
	.globl	tommy_hashdyn_remove
	.type	tommy_hashdyn_remove, @function
tommy_hashdyn_remove:
.LFB129:
	.loc 1 166 0
	.cfi_startproc
.LVL818:
	pushl	%ebp	#
	.cfi_def_cfa_offset 8
	.cfi_offset 5, -8
	pushl	%edi	#
	.cfi_def_cfa_offset 12
	.cfi_offset 7, -12
	.loc 1 167 0
	xorl	%edx, %edx	# pos
	.loc 1 166 0
	pushl	%esi	#
	.cfi_def_cfa_offset 16
	.cfi_offset 6, -16
	pushl	%ebx	#
	.cfi_def_cfa_offset 20
	.cfi_offset 3, -20
	subl	$28, %esp	#,
	.cfi_def_cfa_offset 48
	.loc 1 166 0
	movl	60(%esp), %edi	# hash, hash
	movl	48(%esp), %esi	# hashdyn, hashdyn
.LVL819:
	movl	52(%esp), %ebp	# cmp, cmp
	.loc 1 167 0
	movl	%edi, %eax	# hash, tmp113
	divl	8(%esi)	# hashdyn_7(D)->bucket_max
.LVL820:
	.loc 1 168 0
	leal	0(,%edx,4), %eax	#, D.6174
	movl	%eax, 12(%esp)	# D.6174, %sfp
	movl	(%esi), %eax	# hashdyn_7(D)->bucket, hashdyn_7(D)->bucket
	movl	(%eax,%edx,4), %ebx	# *_13, i
.LVL821:
	.loc 1 170 0
	testl	%ebx, %ebx	# i
	jne	.L604	#,
	jmp	.L603	#
.LVL822:
	.p2align 4,,10
	.p2align 3
.L596:
	.loc 1 181 0
	movl	(%ebx), %ebx	# i_54->next, i
.LVL823:
	.loc 1 170 0
	testl	%ebx, %ebx	# i
	je	.L603	#,
.L604:
	.loc 1 172 0
	cmpl	%edi, 12(%ebx)	# hash, i_54->key
	jne	.L596	#,
	.loc 1 172 0 is_stmt 0 discriminator 1
	subl	$8, %esp	#,
	.cfi_def_cfa_offset 56
	pushl	8(%ebx)	# i_54->data
	.cfi_def_cfa_offset 60
	pushl	68(%esp)	# cmp_arg
	.cfi_def_cfa_offset 64
	call	*%ebp	# cmp
.LVL824:
	addl	$16, %esp	#,
	.cfi_def_cfa_offset 48
	testl	%eax, %eax	# D.6176
	jne	.L596	#,
	.loc 1 173 0 is_stmt 1
	movl	12(%esp), %eax	# %sfp, D.6177
.LBB740:
.LBB741:
	.loc 2 267 0
	movl	(%ebx), %edx	# MEM[(struct tommy_node *)i_55].next, D.6179
.LBE741:
.LBE740:
	.loc 1 173 0
	addl	(%esi), %eax	# hashdyn_7(D)->bucket, D.6177
.LVL825:
.LBB744:
.LBB742:
	.loc 2 268 0
	movl	4(%ebx), %edi	# MEM[(struct tommy_node *)i_55].prev, D.6179
	.loc 2 267 0
	testl	%edx, %edx	# D.6179
	movl	(%eax), %ecx	# *_23, D.6178
.LVL826:
	je	.L597	#,
	.loc 2 268 0
	movl	%edi, 4(%edx)	# D.6179, _30->prev
.L598:
	.loc 2 274 0
	cmpl	%ebx, %ecx	# i, D.6178
	je	.L607	#,
	.loc 2 277 0
	movl	4(%ebx), %eax	# MEM[(struct tommy_node *)i_55].prev, MEM[(struct tommy_node *)i_55].prev
.LVL827:
.L607:
	movl	%edx, (%eax)	# D.6179,* MEM[(struct tommy_node *)i_55].prev
.LVL828:
.LBE742:
.LBE744:
	.loc 1 175 0
	movl	16(%esi), %eax	# hashdyn_7(D)->count, tmp125
.LBB745:
.LBB746:
	.loc 1 134 0
	movl	8(%esi), %edx	# hashdyn_7(D)->bucket_max, D.6174
.LBE746:
.LBE745:
	.loc 1 175 0
	subl	$1, %eax	#, D.6174
.LBB752:
.LBB749:
	.loc 1 134 0
	shrl	$3, %edx	#, D.6174
.LBE749:
.LBE752:
	.loc 1 175 0
	movl	%eax, 16(%esi)	# D.6174, hashdyn_7(D)->count
.LVL829:
.LBB753:
.LBB750:
	.loc 1 134 0
	cmpl	%edx, %eax	# D.6174, D.6174
	jbe	.L608	#,
.L601:
.LBE750:
.LBE753:
	.loc 1 179 0
	movl	8(%ebx), %eax	# i_55->data, D.6173
	.loc 1 185 0
	addl	$28, %esp	#,
	.cfi_remember_state
	.cfi_def_cfa_offset 20
	popl	%ebx	#
	.cfi_restore 3
	.cfi_def_cfa_offset 16
.LVL830:
	popl	%esi	#
	.cfi_restore 6
	.cfi_def_cfa_offset 12
.LVL831:
	popl	%edi	#
	.cfi_restore 7
	.cfi_def_cfa_offset 8
	popl	%ebp	#
	.cfi_restore 5
	.cfi_def_cfa_offset 4
	ret
.LVL832:
	.p2align 4,,10
	.p2align 3
.L603:
	.cfi_restore_state
	addl	$28, %esp	#,
	.cfi_remember_state
	.cfi_def_cfa_offset 20
	.loc 1 184 0
	xorl	%eax, %eax	# D.6173
	.loc 1 185 0
	popl	%ebx	#
	.cfi_restore 3
	.cfi_def_cfa_offset 16
.LVL833:
	popl	%esi	#
	.cfi_restore 6
	.cfi_def_cfa_offset 12
	popl	%edi	#
	.cfi_restore 7
	.cfi_def_cfa_offset 8
	popl	%ebp	#
	.cfi_restore 5
	.cfi_def_cfa_offset 4
	ret
.LVL834:
.L608:
	.cfi_restore_state
.LBB754:
.LBB751:
.LBB747:
.LBB748:
	.loc 1 134 0
	movl	4(%esi), %eax	# hashdyn_7(D)->bucket_bit, D.6174
	cmpl	$4, %eax	#, D.6174
	jbe	.L601	#,
	.loc 1 135 0
	leal	-1(%eax), %edx	#, D.6174
	movl	%esi, %eax	# hashdyn,
	call	tommy_hashdyn_resize	#
.LVL835:
	jmp	.L601	#
.LVL836:
.L597:
.LBE748:
.LBE747:
.LBE751:
.LBE754:
.LBB755:
.LBB743:
	.loc 2 270 0
	movl	%edi, 4(%ecx)	# D.6179, _29->prev
	jmp	.L598	#
.LBE743:
.LBE755:
	.cfi_endproc
.LFE129:
	.size	tommy_hashdyn_remove, .-tommy_hashdyn_remove
	.section	.text.unlikely
.LCOLDE56:
	.text
.LHOTE56:
	.section	.text.unlikely
.LCOLDB57:
	.text
.LHOTB57:
	.p2align 4,,15
	.globl	tommy_hashdyn_memory_usage
	.type	tommy_hashdyn_memory_usage, @function
tommy_hashdyn_memory_usage:
.LFB130:
	.loc 1 188 0
	.cfi_startproc
.LVL837:
	.loc 1 188 0
	movl	4(%esp), %eax	# hashdyn, hashdyn
	.loc 1 190 0
	movl	16(%eax), %edx	# MEM[(unsigned int *)hashdyn_2(D) + 16B], MEM[(unsigned int *)hashdyn_2(D) + 16B]
	movl	8(%eax), %eax	# hashdyn_2(D)->bucket_max, hashdyn_2(D)->bucket_max
	leal	(%eax,%edx,4), %eax	#, D.6182
	.loc 1 189 0
	sall	$2, %eax	#, D.6183
	.loc 1 191 0
	ret
	.cfi_endproc
.LFE130:
	.size	tommy_hashdyn_memory_usage, .-tommy_hashdyn_memory_usage
	.section	.text.unlikely
.LCOLDE57:
	.text
.LHOTE57:
	.section	.text.unlikely
.LCOLDB58:
	.text
.LHOTB58:
	.p2align 4,,15
	.globl	tommy_hashlin_init
	.type	tommy_hashlin_init, @function
tommy_hashlin_init:
.LFB133:
	.file 16 "tommyhashlin.c"
	.loc 16 45 0
	.cfi_startproc
.LVL838:
	pushl	%edi	#
	.cfi_def_cfa_offset 8
	.cfi_offset 7, -8
	pushl	%ebx	#
	.cfi_def_cfa_offset 12
	.cfi_offset 3, -12
	subl	$16, %esp	#,
	.cfi_def_cfa_offset 28
	.loc 16 45 0
	movl	28(%esp), %ebx	# hashlin, hashlin
	.loc 16 47 0
	movl	$6, 128(%ebx)	#, hashlin_2(D)->bucket_bit
	.loc 16 48 0
	movl	$64, 132(%ebx)	#, hashlin_2(D)->bucket_max
	.loc 16 49 0
	movl	$63, 136(%ebx)	#, hashlin_2(D)->bucket_mask
	.loc 16 50 0
	pushl	$256	#
	.cfi_def_cfa_offset 32
	call	malloc	#
.LVL839:
	movl	%eax, %edx	#, tmp85
	movl	%eax, (%ebx)	# tmp85, hashlin_2(D)->bucket
	.loc 16 51 0
	movl	$64, %ecx	#, tmp88
	xorl	%eax, %eax	# tmp87
	movl	%edx, %edi	# tmp85, D.6188
	.loc 16 52 0
	movl	$1, 140(%ebx)	#, hashlin_2(D)->bucket_mac
	.loc 16 51 0
	rep stosl
	.loc 16 55 0
	movl	$0, 156(%ebx)	#, hashlin_2(D)->state
	.loc 16 57 0
	movl	$0, 160(%ebx)	#, hashlin_2(D)->count
	.loc 16 58 0
	addl	$20, %esp	#,
	.cfi_def_cfa_offset 12
	popl	%ebx	#
	.cfi_restore 3
	.cfi_def_cfa_offset 8
	popl	%edi	#
	.cfi_restore 7
	.cfi_def_cfa_offset 4
	ret
	.cfi_endproc
.LFE133:
	.size	tommy_hashlin_init, .-tommy_hashlin_init
	.section	.text.unlikely
.LCOLDE58:
	.text
.LHOTE58:
	.section	.text.unlikely
.LCOLDB59:
	.text
.LHOTB59:
	.p2align 4,,15
	.globl	tommy_hashlin_done
	.type	tommy_hashlin_done, @function
tommy_hashlin_done:
.LFB134:
	.loc 16 61 0
	.cfi_startproc
.LVL840:
	pushl	%esi	#
	.cfi_def_cfa_offset 8
	.cfi_offset 6, -8
	pushl	%ebx	#
	.cfi_def_cfa_offset 12
	.cfi_offset 3, -12
	.loc 16 63 0
	xorl	%ebx, %ebx	# i
	.loc 16 61 0
	subl	$4, %esp	#,
	.cfi_def_cfa_offset 16
	.loc 16 61 0
	movl	16(%esp), %esi	# hashlin, hashlin
	.loc 16 63 0
	movl	140(%esi), %eax	# hashlin_4(D)->bucket_mac,
	testl	%eax, %eax	#
	je	.L612	#,
.LVL841:
	.p2align 4,,10
	.p2align 3
.L616:
	.loc 16 64 0 discriminator 3
	subl	$12, %esp	#,
	.cfi_def_cfa_offset 28
	pushl	(%esi,%ebx,4)	# MEM[base: hashlin_4(D), index: i_12, step: 4, offset: 0B]
	.cfi_def_cfa_offset 32
	.loc 16 63 0 discriminator 3
	addl	$1, %ebx	#, i
.LVL842:
	.loc 16 64 0 discriminator 3
	call	free	#
.LVL843:
	.loc 16 63 0 discriminator 3
	addl	$16, %esp	#,
	.cfi_def_cfa_offset 16
	cmpl	%ebx, 140(%esi)	# i, hashlin_4(D)->bucket_mac
	ja	.L616	#,
.LVL844:
.L612:
	.loc 16 65 0
	addl	$4, %esp	#,
	.cfi_def_cfa_offset 12
	popl	%ebx	#
	.cfi_restore 3
	.cfi_def_cfa_offset 8
	popl	%esi	#
	.cfi_restore 6
	.cfi_def_cfa_offset 4
	ret
	.cfi_endproc
.LFE134:
	.size	tommy_hashlin_done, .-tommy_hashlin_done
	.section	.text.unlikely
.LCOLDE59:
	.text
.LHOTE59:
	.section	.text.unlikely
.LCOLDB60:
	.text
.LHOTB60:
	.p2align 4,,15
	.globl	tommy_hashlin_insert
	.type	tommy_hashlin_insert, @function
tommy_hashlin_insert:
.LFB139:
	.loc 16 268 0
	.cfi_startproc
.LVL845:
	pushl	%ebp	#
	.cfi_def_cfa_offset 8
	.cfi_offset 5, -8
	pushl	%edi	#
	.cfi_def_cfa_offset 12
	.cfi_offset 7, -12
	pushl	%esi	#
	.cfi_def_cfa_offset 16
	.cfi_offset 6, -16
	pushl	%ebx	#
	.cfi_def_cfa_offset 20
	.cfi_offset 3, -20
	subl	$44, %esp	#,
	.cfi_def_cfa_offset 64
	.loc 16 268 0
	movl	64(%esp), %esi	# hashlin, hashlin
.LVL846:
	movl	68(%esp), %eax	# node, node
	movl	76(%esp), %edi	# hash, hash
.LVL847:
.LBB791:
.LBB792:
	.loc 16 96 0
	movl	156(%esi), %ebx	# hashlin_2(D)->state, D.6243
	testl	%ebx, %ebx	# D.6243
	je	.L620	#,
	.loc 16 98 0
	movl	148(%esi), %edx	# hashlin_2(D)->low_mask, pos
	andl	%edi, %edx	# hash, pos
.LVL848:
	.loc 16 101 0
	cmpl	152(%esi), %edx	# hashlin_2(D)->split, pos
	jb	.L620	#,
.LVL849:
.LBB793:
.LBB794:
	.loc 16 75 0
	cmpl	$63, %edx	#, pos
	ja	.L623	#,
.L659:
	.loc 16 76 0
	movl	(%esi), %ecx	# hashlin_2(D)->bucket, hashlin_2(D)->bucket
	leal	(%ecx,%edx,4), %ecx	#, D.6247
.LVL850:
	movl	(%ecx), %edx	# MEM[(struct tommy_node * *)_38], D.6245
.LVL851:
.LBE794:
.LBE793:
.LBE792:
.LBE791:
.LBB802:
.LBB803:
	.loc 2 227 0
	testl	%edx, %edx	# D.6245
	je	.L624	#,
.L660:
.LVL852:
.LBB804:
.LBB805:
	.loc 2 192 0
	movl	4(%edx), %ecx	# MEM[(struct tommy_node_struct * *)_13 + 4B], D.6246
	movl	%ecx, 4(%eax)	# D.6246, MEM[(struct tommy_node *)node_5(D)].prev
	.loc 2 193 0
	movl	%eax, 4(%edx)	# node, MEM[(struct tommy_node_struct * *)_13 + 4B]
	.loc 2 197 0
	movl	4(%eax), %edx	# MEM[(struct tommy_node *)node_5(D)].prev, MEM[(struct tommy_node *)node_5(D)].prev
	.loc 2 196 0
	movl	$0, (%eax)	#, MEM[(struct tommy_node *)node_5(D)].next
	.loc 2 197 0
	movl	%eax, (%edx)	# node, _15->next
.LVL853:
.L625:
.LBE805:
.LBE804:
	.loc 2 233 0
	movl	72(%esp), %edx	# data, data
.LBE803:
.LBE802:
	.loc 16 271 0
	movl	%edi, 12(%eax)	# hash, node_5(D)->key
.LBB810:
.LBB811:
	.loc 16 120 0
	cmpl	$1, %ebx	#, D.6243
.LBE811:
.LBE810:
.LBB837:
.LBB808:
	.loc 2 233 0
	movl	%edx, 8(%eax)	# data, MEM[(struct tommy_node *)node_5(D)].data
.LBE808:
.LBE837:
	.loc 16 273 0
	movl	160(%esi), %eax	# hashlin_2(D)->count, tmp228
.LVL854:
	leal	1(%eax), %edi	#, D.6243
.LVL855:
	movl	%edi, 160(%esi)	# D.6243, hashlin_2(D)->count
.LVL856:
.LBB838:
.LBB834:
	.loc 16 120 0
	je	.L626	#,
	.loc 16 121 0
	movl	132(%esi), %ebp	# hashlin_2(D)->bucket_max, D.6243
	movl	%ebp, %eax	# D.6243, D.6243
	shrl	%eax	# D.6243
	cmpl	%eax, %edi	# D.6243, D.6243
	jbe	.L619	#,
	.loc 16 126 0
	testl	%ebx, %ebx	# D.6243
	je	.L629	#,
	movl	144(%esi), %ebp	# hashlin_2(D)->low_max, D.6243
	movl	152(%esi), %ebx	# hashlin_2(D)->split, D.6243
.L630:
	.loc 16 143 0
	movl	$1, 156(%esi)	#, hashlin_2(D)->state
.L631:
.LBB812:
	.loc 16 149 0
	leal	(%edi,%edi), %eax	#, split_target
	.loc 16 152 0
	addl	%ebx, %ebp	# D.6243, D.6243
	cmpl	%ebp, %eax	# D.6243, split_target
	.loc 16 149 0
	movl	%eax, 4(%esp)	# split_target, %sfp
.LVL857:
	.loc 16 152 0
	jbe	.L619	#,
	movl	140(%esi), %eax	# hashlin_2(D)->bucket_mac, hashlin_2(D)->bucket_mac
.LVL858:
	movl	144(%esi), %edi	# hashlin_2(D)->low_max, D.6243
	movl	%eax, 8(%esp)	# hashlin_2(D)->bucket_mac, %sfp
.LBB813:
	.loc 16 173 0
	movl	148(%esi), %eax	# hashlin_2(D)->low_mask, D.6243
	notl	%eax	# D.6243
	movl	%eax, 12(%esp)	# D.6243, %sfp
	.p2align 4,,10
	.p2align 3
.L641:
.LVL859:
.LBB814:
.LBB815:
	.loc 16 75 0
	cmpl	$63, %ebx	#, D.6243
	ja	.L632	#,
	.loc 16 76 0
	movl	(%esi), %edx	# hashlin_2(D)->bucket, D.6247
	sall	$2, %ebx	#, D.6243
.LVL860:
	addl	%ebx, %edx	# D.6243, D.6247
.L633:
.LBE815:
.LBE814:
	.loc 16 163 0
	movl	8(%esp), %eax	# %sfp, hashlin_2(D)->bucket_mac
	.loc 16 173 0
	movl	12(%esp), %ebp	# %sfp, mask
	andl	136(%esi), %ebp	# hashlin_2(D)->bucket_mask, mask
	.loc 16 158 0
	movl	%edx, 24(%esp)	# D.6247, split
	.loc 16 163 0
	addl	-4(%esi,%eax,4), %ebx	# hashlin_2(D)->bucket, D.6247
	.loc 16 166 0
	movl	(%edx), %eax	# *_86, j
.LVL861:
	.loc 16 169 0
	movl	$0, (%edx)	#, *_86
	.loc 16 176 0
	testl	%eax, %eax	# j
	.loc 16 163 0
	movl	%ebx, 28(%esp)	# D.6247, split
	.loc 16 170 0
	movl	$0, (%ebx)	#, *_91
	.loc 16 176 0
	jne	.L646	#,
	jmp	.L640	#
.LVL862:
	.p2align 4,,10
	.p2align 3
.L657:
.LBB821:
.LBB822:
.LBB823:
	.loc 2 192 0
	movl	4(%edx), %ecx	# MEM[(struct tommy_node_struct * *)_104 + 4B], D.6246
.LBE823:
.LBE822:
.LBE821:
	.loc 16 176 0
	testl	%ebx, %ebx	# j
.LBB828:
.LBB825:
.LBB824:
	.loc 2 192 0
	movl	%ecx, 4(%eax)	# D.6246, MEM[(struct tommy_node *)j_64].prev
	.loc 2 193 0
	movl	%eax, 4(%edx)	# j, MEM[(struct tommy_node_struct * *)_104 + 4B]
.LVL863:
	.loc 2 197 0
	movl	4(%eax), %edx	# MEM[(struct tommy_node *)j_64].prev, MEM[(struct tommy_node *)j_64].prev
.LVL864:
	.loc 2 196 0
	movl	$0, (%eax)	#, MEM[(struct tommy_node *)j_64].next
	.loc 2 197 0
	movl	%eax, (%edx)	# j, _106->next
.LVL865:
	movl	%ebx, %eax	# j, j
.LVL866:
.LBE824:
.LBE825:
.LBE828:
	.loc 16 176 0
	je	.L640	#,
.LVL867:
.L646:
.LBB829:
	.loc 16 178 0
	xorl	%edx, %edx	# D.6249
	testl	%ebp, 12(%eax)	# mask, j_64->key
	.loc 16 177 0
	movl	(%eax), %ebx	# j_64->next, j
.LVL868:
	.loc 16 178 0
	setne	%dl	#, D.6249
	.loc 16 179 0
	movl	24(%esp,%edx,4), %ecx	# split, D.6247
	movl	(%ecx), %edx	# *_103, D.6250
	testl	%edx, %edx	# D.6250
	jne	.L657	#,
.LVL869:
.LBE829:
	.loc 16 176 0
	testl	%ebx, %ebx	# j
.LBB830:
.LBB826:
.LBB827:
	.loc 2 155 0
	movl	%eax, 4(%eax)	# j, MEM[(struct tommy_node *)j_64].prev
	.loc 2 158 0
	movl	$0, (%eax)	#, MEM[(struct tommy_node *)j_64].next
	.loc 2 160 0
	movl	%eax, (%ecx)	# j, MEM[(struct tommy_node * *)_103]
.LVL870:
	movl	%ebx, %eax	# j, j
.LVL871:
.LBE827:
.LBE826:
.LBE830:
	.loc 16 176 0
	jne	.L646	#,
.LVL872:
	.p2align 4,,10
	.p2align 3
.L640:
	.loc 16 187 0
	movl	152(%esi), %eax	# hashlin_2(D)->split, tmp238
.LVL873:
	leal	1(%eax), %ebx	#, D.6243
	.loc 16 190 0
	cmpl	%edi, %ebx	# D.6243, D.6243
	.loc 16 187 0
	movl	%ebx, 152(%esi)	# D.6243, hashlin_2(D)->split
	.loc 16 190 0
	je	.L658	#,
.LBE813:
	.loc 16 152 0
	leal	(%ebx,%edi), %eax	#, D.6243
	cmpl	%eax, 4(%esp)	# D.6243, %sfp
	ja	.L641	#,
.LVL874:
.L619:
.LBE812:
.LBE834:
.LBE838:
	.loc 16 276 0
	addl	$44, %esp	#,
	.cfi_remember_state
	.cfi_def_cfa_offset 20
	popl	%ebx	#
	.cfi_restore 3
	.cfi_def_cfa_offset 16
	popl	%esi	#
	.cfi_restore 6
	.cfi_def_cfa_offset 12
.LVL875:
	popl	%edi	#
	.cfi_restore 7
	.cfi_def_cfa_offset 8
	popl	%ebp	#
	.cfi_restore 5
	.cfi_def_cfa_offset 4
	ret
.LVL876:
	.p2align 4,,10
	.p2align 3
.L620:
	.cfi_restore_state
.LBB839:
.LBB801:
	.loc 16 109 0
	movl	136(%esi), %edx	# hashlin_2(D)->bucket_mask, pos
	andl	%edi, %edx	# hash, pos
.LVL877:
.LBB800:
.LBB799:
	.loc 16 75 0
	cmpl	$63, %edx	#, pos
	jbe	.L659	#,
.L623:
.LVL878:
.LBB795:
.LBB796:
.LBB797:
.LBB798:
	.loc 6 316 0
	bsrl	%edx, %ecx	# pos, D.6244
.LVL879:
.LBE798:
.LBE797:
	.loc 16 83 0
	movl	$1, %ebp	#, tmp181
	sall	%cl, %ebp	# D.6244, D.6244
	.loc 16 85 0
	movl	-20(%esi,%ecx,4), %ecx	# hashlin_2(D)->bucket, tmp184
.LVL880:
	.loc 16 83 0
	subl	%ebp, %edx	# D.6244, pos
.LVL881:
	.loc 16 85 0
	leal	(%ecx,%edx,4), %ecx	#, D.6247
.LVL882:
	movl	(%ecx), %edx	# MEM[(struct tommy_node * *)_38], D.6245
.LBE796:
.LBE795:
.LBE799:
.LBE800:
.LBE801:
.LBE839:
.LBB840:
.LBB809:
	.loc 2 227 0
	testl	%edx, %edx	# D.6245
	jne	.L660	#,
.LVL883:
.L624:
.LBB806:
.LBB807:
	.loc 2 155 0
	movl	%eax, 4(%eax)	# node, MEM[(struct tommy_node *)node_5(D)].prev
	.loc 2 158 0
	movl	$0, (%eax)	#, MEM[(struct tommy_node *)node_5(D)].next
	.loc 2 160 0
	movl	%eax, (%ecx)	# node, MEM[(struct tommy_node * *)_38]
	jmp	.L625	#
.LVL884:
	.p2align 4,,10
	.p2align 3
.L632:
.LBE807:
.LBE806:
.LBE809:
.LBE840:
.LBB841:
.LBB835:
.LBB833:
.LBB832:
.LBB831:
.LBB820:
.LBB816:
.LBB817:
.LBB818:
.LBB819:
	.loc 6 316 0
	bsrl	%ebx, %ecx	# D.6243, D.6244
.LVL885:
.LBE819:
.LBE818:
	.loc 16 83 0
	movl	$1, %eax	#, D.6244
	movl	%ebx, %edx	# D.6243, pos
	sall	%cl, %eax	# D.6244, D.6244
	sall	$2, %ebx	#, D.6243
.LVL886:
	subl	%eax, %edx	# D.6244, pos
.LVL887:
	movl	%edx, %eax	# pos, pos
	.loc 16 85 0
	movl	-20(%esi,%ecx,4), %edx	# hashlin_2(D)->bucket, tmp201
	leal	(%edx,%eax,4), %edx	#, D.6247
	jmp	.L633	#
.LVL888:
.L626:
	movl	144(%esi), %ebp	# hashlin_2(D)->low_max, D.6243
	movl	152(%esi), %ebx	# hashlin_2(D)->split, D.6243
	jmp	.L631	#
.LVL889:
.L658:
.LBE817:
.LBE816:
.LBE820:
.LBE831:
	.loc 16 191 0
	movl	$0, 156(%esi)	#, hashlin_2(D)->state
.LBE832:
.LBE833:
.LBE835:
.LBE841:
	.loc 16 276 0
	addl	$44, %esp	#,
	.cfi_remember_state
	.cfi_def_cfa_offset 20
	popl	%ebx	#
	.cfi_restore 3
	.cfi_def_cfa_offset 16
	popl	%esi	#
	.cfi_restore 6
	.cfi_def_cfa_offset 12
.LVL890:
	popl	%edi	#
	.cfi_restore 7
	.cfi_def_cfa_offset 8
	popl	%ebp	#
	.cfi_restore 5
	.cfi_def_cfa_offset 4
.LVL891:
	ret
.LVL892:
.L629:
	.cfi_restore_state
.LBB842:
.LBB836:
	.loc 16 129 0
	movl	136(%esi), %eax	# hashlin_2(D)->bucket_mask, hashlin_2(D)->bucket_mask
	.loc 16 135 0
	movl	140(%esi), %edx	# hashlin_2(D)->bucket_mac, D.6243
	subl	$12, %esp	#,
	.cfi_def_cfa_offset 76
	.loc 16 128 0
	movl	%ebp, 144(%esi)	# D.6243, hashlin_2(D)->low_max
	.loc 16 129 0
	movl	%eax, 148(%esi)	# hashlin_2(D)->bucket_mask, hashlin_2(D)->low_mask
	.loc 16 132 0
	movl	128(%esi), %eax	# hashlin_2(D)->bucket_bit, tmp230
	.loc 16 135 0
	movl	%edx, 16(%esp)	# D.6243, %sfp
	.loc 16 132 0
	leal	1(%eax), %ecx	#, D.6243
	.loc 16 133 0
	movl	$1, %eax	#, tmp190
	sall	%cl, %eax	# D.6243, D.6243
	.loc 16 132 0
	movl	%ecx, 128(%esi)	# D.6243, hashlin_2(D)->bucket_bit
	.loc 16 133 0
	movl	%eax, 132(%esi)	# D.6243, hashlin_2(D)->bucket_max
	.loc 16 134 0
	subl	$1, %eax	#, tmp191
	movl	%eax, 136(%esi)	# tmp191, hashlin_2(D)->bucket_mask
	.loc 16 135 0
	leal	0(,%ebp,4), %eax	#, D.6243
	pushl	%eax	# D.6243
	.cfi_def_cfa_offset 80
	call	malloc	#
.LVL893:
	movl	20(%esp), %edx	# %sfp, D.6243
	.loc 16 139 0
	addl	$16, %esp	#,
	.cfi_def_cfa_offset 64
	.loc 16 135 0
	movl	%eax, (%esi,%edx,4)	# tmp193, hashlin_2(D)->bucket
	.loc 16 136 0
	addl	$1, %edx	#, tmp194
	.loc 16 139 0
	movl	$0, 152(%esi)	#, hashlin_2(D)->split
	.loc 16 136 0
	movl	%edx, 140(%esi)	# tmp194, hashlin_2(D)->bucket_mac
	jmp	.L630	#
.LBE836:
.LBE842:
	.cfi_endproc
.LFE139:
	.size	tommy_hashlin_insert, .-tommy_hashlin_insert
	.section	.text.unlikely
.LCOLDE60:
	.text
.LHOTE60:
	.section	.text.unlikely
.LCOLDB61:
	.text
.LHOTB61:
	.p2align 4,,15
	.globl	tommy_hashlin_remove_existing
	.type	tommy_hashlin_remove_existing, @function
tommy_hashlin_remove_existing:
.LFB140:
	.loc 16 279 0
	.cfi_startproc
.LVL894:
	pushl	%ebp	#
	.cfi_def_cfa_offset 8
	.cfi_offset 5, -8
	pushl	%edi	#
	.cfi_def_cfa_offset 12
	.cfi_offset 7, -12
	pushl	%esi	#
	.cfi_def_cfa_offset 16
	.cfi_offset 6, -16
	pushl	%ebx	#
	.cfi_def_cfa_offset 20
	.cfi_offset 3, -20
	subl	$28, %esp	#,
	.cfi_def_cfa_offset 48
	.loc 16 279 0
	movl	48(%esp), %edx	# hashlin, hashlin
	.loc 16 280 0
	movl	52(%esp), %eax	# node, tmp205
.LBB876:
.LBB877:
	.loc 16 96 0
	movl	156(%edx), %ebx	# hashlin_4(D)->state, D.6307
.LBE877:
.LBE876:
	.loc 16 280 0
	movl	12(%eax), %eax	# node_2(D)->key, D.6307
.LVL895:
.LBB897:
.LBB894:
	.loc 16 96 0
	testl	%ebx, %ebx	# D.6307
	je	.L662	#,
	.loc 16 98 0
	movl	148(%edx), %esi	# hashlin_4(D)->low_mask, pos
	andl	%eax, %esi	# D.6307, pos
.LVL896:
	.loc 16 101 0
	cmpl	152(%edx), %esi	# hashlin_4(D)->split, pos
	jb	.L662	#,
.LVL897:
.LBB878:
.LBB879:
	.loc 16 75 0
	cmpl	$63, %esi	#, pos
	ja	.L663	#,
	.loc 16 76 0
	movl	(%edx), %eax	# hashlin_4(D)->bucket, hashlin_4(D)->bucket
.LVL898:
	leal	(%eax,%esi,4), %esi	#, D.6311
.LVL899:
	jmp	.L664	#
.LVL900:
	.p2align 4,,10
	.p2align 3
.L662:
.LBE879:
.LBE878:
	.loc 16 109 0
	andl	136(%edx), %eax	# hashlin_4(D)->bucket_mask, pos
.LVL901:
.LBB885:
.LBB886:
	.loc 16 75 0
	cmpl	$63, %eax	#, pos
	jbe	.L690	#,
.LVL902:
.LBB887:
.LBB888:
.LBB889:
.LBB890:
	.loc 6 316 0
	bsrl	%eax, %ecx	# pos, D.6312
.LVL903:
.LBE890:
.LBE889:
	.loc 16 83 0
	movl	$1, %esi	#, tmp173
	sall	%cl, %esi	# D.6312, D.6312
	.loc 16 85 0
	movl	-20(%edx,%ecx,4), %ecx	# hashlin_4(D)->bucket, tmp176
.LVL904:
	.loc 16 83 0
	subl	%esi, %eax	# D.6312, pos
.LVL905:
	.loc 16 85 0
	leal	(%ecx,%eax,4), %esi	#, D.6311
.LVL906:
.L664:
.LBE888:
.LBE887:
.LBE886:
.LBE885:
.LBE894:
.LBE897:
.LBB898:
.LBB899:
	.loc 2 267 0
	movl	52(%esp), %eax	# node, tmp207
	.loc 2 268 0
	movl	52(%esp), %edi	# node, tmp208
	movl	(%esi), %ecx	# MEM[(struct tommy_node * *)_36], D.6309
.LVL907:
	.loc 2 267 0
	movl	(%eax), %eax	# MEM[(struct tommy_node *)node_2(D)].next, D.6310
	.loc 2 268 0
	movl	4(%edi), %edi	# MEM[(struct tommy_node *)node_2(D)].prev, D.6310
	.loc 2 267 0
	testl	%eax, %eax	# D.6310
	je	.L666	#,
	.loc 2 274 0
	cmpl	%ecx, 52(%esp)	# D.6309, node
	.loc 2 268 0
	movl	%edi, 4(%eax)	# D.6310, _13->prev
	.loc 2 274 0
	je	.L691	#,
.L668:
	.loc 2 277 0
	movl	52(%esp), %esi	# node, tmp210
	movl	4(%esi), %ecx	# MEM[(struct tommy_node *)node_2(D)].prev, MEM[(struct tommy_node *)node_2(D)].prev
	movl	%eax, (%ecx)	# D.6310, _16->next
.L669:
.LBE899:
.LBE898:
	.loc 16 282 0
	movl	160(%edx), %eax	# hashlin_4(D)->count, tmp211
.LBB901:
.LBB902:
	.loc 16 204 0
	cmpl	$2, %ebx	#, D.6307
.LBE902:
.LBE901:
	.loc 16 282 0
	leal	-1(%eax), %ecx	#, D.6307
	movl	%ecx, 160(%edx)	# D.6307, hashlin_4(D)->count
.LVL908:
.LBB933:
.LBB929:
	.loc 16 204 0
	je	.L670	#,
	.loc 16 205 0
	movl	132(%edx), %eax	# hashlin_4(D)->bucket_max, D.6307
	movl	%eax, %esi	# D.6307, D.6307
	shrl	$3, %esi	#, D.6307
	cmpl	%esi, %ecx	# D.6307, D.6307
	jae	.L675	#,
	.loc 16 208 0
	cmpl	$6, 128(%edx)	#, hashlin_4(D)->bucket_bit
	jbe	.L675	#,
	.loc 16 212 0
	testl	%ebx, %ebx	# D.6307
	je	.L672	#,
	movl	144(%edx), %eax	# hashlin_4(D)->low_max, D.6307
	movl	%eax, 12(%esp)	# D.6307, %sfp
	movl	152(%edx), %eax	# hashlin_4(D)->split, D.6307
.L673:
	.loc 16 222 0
	movl	$2, 156(%edx)	#, hashlin_4(D)->state
.L674:
.LVL909:
.LBB903:
.LBB904:
	.loc 16 229 0
	leal	0(,%ecx,8), %esi	#, split_target
	movl	%esi, 8(%esp)	# split_target, %sfp
.LVL910:
	leal	-4(,%eax,4), %esi	#, ivtmp.434
.LVL911:
	jmp	.L676	#
.LVL912:
	.p2align 4,,10
	.p2align 3
.L694:
.LBB905:
.LBB906:
.LBB907:
	.loc 16 76 0
	movl	(%edx), %ebp	# hashlin_4(D)->bucket, D.6311
	addl	%esi, %ebp	# ivtmp.434, D.6311
.L678:
.LVL913:
.LBE907:
.LBE906:
	.loc 16 244 0
	movl	140(%edx), %edi	# hashlin_4(D)->bucket_mac, tmp223
	leal	-1(%edi), %ebx	#, D.6307
.LVL914:
	movl	(%edx,%ebx,4), %ecx	# hashlin_4(D)->bucket, tmp193
	movl	(%ecx,%esi), %ecx	# MEM[(struct tommy_node * *)_81], D.6309
.LVL915:
.LBB914:
.LBB915:
	.loc 3 37 0
	testl	%ecx, %ecx	# D.6309
	je	.L679	#,
	movl	0(%ebp), %edi	# MEM[(struct tommy_node * *)_83], D.6309
.LVL916:
	.loc 3 41 0
	testl	%edi, %edi	# D.6309
	je	.L692	#,
.LVL917:
.LBB916:
.LBB917:
	.loc 2 144 0
	movl	4(%edi), %ebp	# _84->prev, D.6313
.LVL918:
	movl	%ebp, 4(%esp)	# D.6313, %sfp
.LBE917:
.LBE916:
	.loc 3 51 0
	movl	4(%ecx), %ebp	# _82->prev, tmp224
	movl	%ebp, 4(%edi)	# tmp224, _84->prev
.LVL919:
	.loc 3 52 0
	movl	4(%esp), %edi	# %sfp, D.6313
	movl	%edi, 4(%ecx)	# D.6313, _82->prev
	.loc 3 55 0
	movl	%ecx, (%edi)	# D.6309, _85->next
.L679:
	subl	$4, %esi	#, ivtmp.434
.LBE915:
.LBE914:
	.loc 16 250 0
	testl	%eax, %eax	# D.6307
	je	.L693	#,
.LVL920:
.L676:
	movl	12(%esp), %edi	# %sfp, D.6307
	leal	(%eax,%edi), %ecx	#, D.6307
.LBE905:
	.loc 16 232 0
	cmpl	%ecx, 8(%esp)	# D.6307, %sfp
	jae	.L675	#,
.LBB922:
	.loc 16 236 0
	subl	$1, %eax	#, D.6307
.LBB919:
.LBB912:
	.loc 16 75 0
	cmpl	$63, %eax	#, D.6307
.LBE912:
.LBE919:
	.loc 16 236 0
	movl	%eax, 152(%edx)	# D.6307, hashlin_4(D)->split
.LVL921:
.LBB920:
.LBB913:
	.loc 16 75 0
	jbe	.L694	#,
.LVL922:
.LBB908:
.LBB909:
.LBB910:
.LBB911:
	.loc 6 316 0
	bsrl	%eax, %ecx	# D.6307, D.6312
.LVL923:
.LBE911:
.LBE910:
	.loc 16 83 0
	movl	$1, %ebx	#, D.6312
	movl	%eax, %edi	# D.6307, pos
	sall	%cl, %ebx	# D.6312, D.6312
	.loc 16 85 0
	movl	-20(%edx,%ecx,4), %ecx	# hashlin_4(D)->bucket, tmp191
.LVL924:
	.loc 16 83 0
	subl	%ebx, %edi	# D.6312, pos
	.loc 16 85 0
	leal	(%ecx,%edi,4), %ebp	#, D.6311
	jmp	.L678	#
.LVL925:
	.p2align 4,,10
	.p2align 3
.L690:
.LBE909:
.LBE908:
.LBE913:
.LBE920:
.LBE922:
.LBE904:
.LBE903:
.LBE929:
.LBE933:
.LBB934:
.LBB895:
.LBB892:
.LBB891:
	.loc 16 76 0
	movl	(%edx), %ecx	# hashlin_4(D)->bucket, hashlin_4(D)->bucket
	leal	(%ecx,%eax,4), %esi	#, D.6311
	jmp	.L664	#
.LVL926:
	.p2align 4,,10
	.p2align 3
.L693:
.LBE891:
.LBE892:
.LBE895:
.LBE934:
.LBB935:
.LBB930:
.LBB927:
.LBB925:
.LBB923:
	.loc 16 254 0
	movl	128(%edx), %eax	# hashlin_4(D)->bucket_bit, tmp225
.LVL927:
	.loc 16 260 0
	subl	$12, %esp	#,
	.cfi_def_cfa_offset 60
	.loc 16 251 0
	movl	$0, 156(%edx)	#, hashlin_4(D)->state
	.loc 16 259 0
	movl	%ebx, 140(%edx)	# D.6307, hashlin_4(D)->bucket_mac
	.loc 16 254 0
	leal	-1(%eax), %ecx	#, D.6307
	.loc 16 255 0
	movl	$1, %eax	#, tmp195
	sall	%cl, %eax	# D.6307, D.6307
	.loc 16 254 0
	movl	%ecx, 128(%edx)	# D.6307, hashlin_4(D)->bucket_bit
	.loc 16 255 0
	movl	%eax, 132(%edx)	# D.6307, hashlin_4(D)->bucket_max
	.loc 16 256 0
	subl	$1, %eax	#, tmp196
	movl	%eax, 136(%edx)	# tmp196, hashlin_4(D)->bucket_mask
	.loc 16 260 0
	pushl	(%edx,%ebx,4)	# hashlin_4(D)->bucket
	.cfi_def_cfa_offset 64
	call	free	#
.LVL928:
	addl	$16, %esp	#,
	.cfi_def_cfa_offset 48
.LVL929:
.L675:
.LBE923:
.LBE925:
.LBE927:
.LBE930:
.LBE935:
	.loc 16 286 0
	movl	52(%esp), %eax	# node, tmp228
	movl	8(%eax), %eax	# node_2(D)->data, node_2(D)->data
	.loc 16 287 0
	addl	$28, %esp	#,
	.cfi_remember_state
	.cfi_def_cfa_offset 20
	popl	%ebx	#
	.cfi_restore 3
	.cfi_def_cfa_offset 16
	popl	%esi	#
	.cfi_restore 6
	.cfi_def_cfa_offset 12
	popl	%edi	#
	.cfi_restore 7
	.cfi_def_cfa_offset 8
	popl	%ebp	#
	.cfi_restore 5
	.cfi_def_cfa_offset 4
	ret
.LVL930:
	.p2align 4,,10
	.p2align 3
.L663:
	.cfi_restore_state
.LBB936:
.LBB896:
.LBB893:
.LBB884:
.LBB880:
.LBB881:
.LBB882:
.LBB883:
	.loc 6 316 0
	bsrl	%esi, %ecx	# pos, D.6312
.LVL931:
.LBE883:
.LBE882:
	.loc 16 83 0
	movl	$1, %eax	#, tmp165
.LVL932:
	sall	%cl, %eax	# D.6312, D.6312
	subl	%eax, %esi	# D.6312, pos
.LVL933:
	.loc 16 85 0
	movl	-20(%edx,%ecx,4), %eax	# hashlin_4(D)->bucket, tmp168
	leal	(%eax,%esi,4), %esi	#, D.6311
	jmp	.L664	#
.LVL934:
	.p2align 4,,10
	.p2align 3
.L692:
.LBE881:
.LBE880:
.LBE884:
.LBE893:
.LBE896:
.LBE936:
.LBB937:
.LBB931:
.LBB928:
.LBB926:
.LBB924:
.LBB921:
.LBB918:
	.loc 3 42 0
	movl	%ecx, 0(%ebp)	# D.6309, MEM[(struct tommy_node * *)_83]
.LVL935:
	jmp	.L679	#
.LVL936:
	.p2align 4,,10
	.p2align 3
.L670:
	movl	144(%edx), %eax	# hashlin_4(D)->low_max, D.6307
	movl	%eax, 12(%esp)	# D.6307, %sfp
	movl	152(%edx), %eax	# hashlin_4(D)->split, D.6307
	jmp	.L674	#
.LVL937:
	.p2align 4,,10
	.p2align 3
.L666:
.LBE918:
.LBE921:
.LBE924:
.LBE926:
.LBE928:
.LBE931:
.LBE937:
.LBB938:
.LBB900:
	.loc 2 274 0
	cmpl	%ecx, 52(%esp)	# D.6309, node
	.loc 2 270 0
	movl	%edi, 4(%ecx)	# D.6310, _12->prev
	.loc 2 274 0
	jne	.L668	#,
	.p2align 4,,10
	.p2align 3
.L691:
	.loc 2 275 0
	movl	%eax, (%esi)	# D.6310, MEM[(struct tommy_node * *)_36]
	jmp	.L669	#
.LVL938:
	.p2align 4,,10
	.p2align 3
.L672:
.LBE900:
.LBE938:
.LBB939:
.LBB932:
	.loc 16 214 0
	shrl	%eax	# D.6307
	movl	%eax, %esi	# D.6307, D.6307
	movl	%eax, 12(%esp)	# D.6307, %sfp
	movl	%eax, 144(%edx)	# D.6307, hashlin_4(D)->low_max
	.loc 16 215 0
	movl	136(%edx), %eax	# hashlin_4(D)->bucket_mask, D.6307
	.loc 16 218 0
	movl	%esi, 152(%edx)	# D.6307, hashlin_4(D)->split
	.loc 16 215 0
	shrl	%eax	# D.6307
	movl	%eax, 148(%edx)	# D.6307, hashlin_4(D)->low_mask
	.loc 16 218 0
	movl	%esi, %eax	# D.6307, D.6307
	jmp	.L673	#
.LBE932:
.LBE939:
	.cfi_endproc
.LFE140:
	.size	tommy_hashlin_remove_existing, .-tommy_hashlin_remove_existing
	.section	.text.unlikely
.LCOLDE61:
	.text
.LHOTE61:
	.section	.text.unlikely
.LCOLDB62:
	.text
.LHOTB62:
	.p2align 4,,15
	.globl	tommy_hashlin_bucket
	.type	tommy_hashlin_bucket, @function
tommy_hashlin_bucket:
.LFB141:
	.loc 16 290 0
	.cfi_startproc
.LVL939:
	pushl	%ebx	#
	.cfi_def_cfa_offset 8
	.cfi_offset 3, -8
	.loc 16 290 0
	movl	8(%esp), %edx	# hashlin, hashlin
.LVL940:
	movl	12(%esp), %eax	# hash, hash
.LVL941:
.LBB954:
.LBB955:
	.loc 16 96 0
	movl	156(%edx), %ecx	# hashlin_2(D)->state,
	testl	%ecx, %ecx	#
	je	.L696	#,
	.loc 16 98 0
	movl	148(%edx), %ebx	# hashlin_2(D)->low_mask, pos
	andl	%eax, %ebx	# hash, pos
.LVL942:
	.loc 16 101 0
	cmpl	152(%edx), %ebx	# hashlin_2(D)->split, pos
	jb	.L696	#,
.LVL943:
.LBB956:
.LBB957:
	.loc 16 75 0
	cmpl	$63, %ebx	#, pos
	ja	.L697	#,
	.loc 16 76 0
	movl	(%edx), %eax	# hashlin_2(D)->bucket, hashlin_2(D)->bucket
	leal	(%eax,%ebx,4), %eax	#, D.6340
.LBE957:
.LBE956:
.LBE955:
.LBE954:
	.loc 16 292 0
	popl	%ebx	#
	.cfi_remember_state
	.cfi_restore 3
	.cfi_def_cfa_offset 4
.LVL944:
	.loc 16 291 0
	movl	(%eax), %eax	# *_20, *_20
	.loc 16 292 0
	ret
.LVL945:
	.p2align 4,,10
	.p2align 3
.L696:
	.cfi_restore_state
.LBB983:
.LBB978:
	.loc 16 109 0
	andl	136(%edx), %eax	# hashlin_2(D)->bucket_mask, pos
.LVL946:
.LBB963:
.LBB964:
	.loc 16 75 0
	cmpl	$63, %eax	#, pos
	jbe	.L701	#,
.LVL947:
.LBB965:
.LBB966:
.LBB967:
.LBB968:
	.loc 6 316 0
	bsrl	%eax, %ecx	# pos, D.6341
.LVL948:
.LBE968:
.LBE967:
	.loc 16 83 0
	movl	$1, %ebx	#, tmp128
	.loc 16 85 0
	movl	-20(%edx,%ecx,4), %edx	# hashlin_2(D)->bucket, tmp131
	.loc 16 83 0
	sall	%cl, %ebx	# D.6341, D.6341
	subl	%ebx, %eax	# D.6341, pos
.LVL949:
.LBE966:
.LBE965:
.LBE964:
.LBE963:
.LBE978:
.LBE983:
	.loc 16 292 0
	popl	%ebx	#
	.cfi_remember_state
	.cfi_restore 3
	.cfi_def_cfa_offset 4
.LBB984:
.LBB979:
.LBB974:
.LBB971:
.LBB970:
.LBB969:
	.loc 16 85 0
	leal	(%edx,%eax,4), %eax	#, D.6340
.LBE969:
.LBE970:
.LBE971:
.LBE974:
.LBE979:
.LBE984:
	.loc 16 291 0
	movl	(%eax), %eax	# *_20, *_20
	.loc 16 292 0
	ret
.LVL950:
	.p2align 4,,10
	.p2align 3
.L701:
	.cfi_restore_state
.LBB985:
.LBB980:
.LBB975:
.LBB972:
	.loc 16 76 0
	movl	(%edx), %edx	# hashlin_2(D)->bucket, hashlin_2(D)->bucket
.LVL951:
.LBE972:
.LBE975:
.LBE980:
.LBE985:
	.loc 16 292 0
	popl	%ebx	#
	.cfi_remember_state
	.cfi_restore 3
	.cfi_def_cfa_offset 4
.LBB986:
.LBB981:
.LBB976:
.LBB973:
	.loc 16 76 0
	leal	(%edx,%eax,4), %eax	#, D.6340
.LVL952:
.LBE973:
.LBE976:
.LBE981:
.LBE986:
	.loc 16 291 0
	movl	(%eax), %eax	# *_20, *_20
	.loc 16 292 0
	ret
.LVL953:
	.p2align 4,,10
	.p2align 3
.L697:
	.cfi_restore_state
.LBB987:
.LBB982:
.LBB977:
.LBB962:
.LBB958:
.LBB959:
.LBB960:
.LBB961:
	.loc 6 316 0
	bsrl	%ebx, %ecx	# pos, D.6341
.LVL954:
.LBE961:
.LBE960:
	.loc 16 83 0
	movl	$1, %eax	#, tmp120
.LVL955:
	sall	%cl, %eax	# D.6341, D.6341
	subl	%eax, %ebx	# D.6341, pos
.LVL956:
	.loc 16 85 0
	movl	-20(%edx,%ecx,4), %eax	# hashlin_2(D)->bucket, tmp123
	leal	(%eax,%ebx,4), %eax	#, D.6340
.LBE959:
.LBE958:
.LBE962:
.LBE977:
.LBE982:
.LBE987:
	.loc 16 292 0
	popl	%ebx	#
	.cfi_restore 3
	.cfi_def_cfa_offset 4
	.loc 16 291 0
	movl	(%eax), %eax	# *_20, *_20
	.loc 16 292 0
	ret
	.cfi_endproc
.LFE141:
	.size	tommy_hashlin_bucket, .-tommy_hashlin_bucket
	.section	.text.unlikely
.LCOLDE62:
	.text
.LHOTE62:
	.section	.text.unlikely
.LCOLDB63:
	.text
.LHOTB63:
	.p2align 4,,15
	.globl	tommy_hashlin_remove
	.type	tommy_hashlin_remove, @function
tommy_hashlin_remove:
.LFB142:
	.loc 16 295 0
	.cfi_startproc
.LVL957:
	pushl	%ebp	#
	.cfi_def_cfa_offset 8
	.cfi_offset 5, -8
	pushl	%edi	#
	.cfi_def_cfa_offset 12
	.cfi_offset 7, -12
	pushl	%esi	#
	.cfi_def_cfa_offset 16
	.cfi_offset 6, -16
	pushl	%ebx	#
	.cfi_def_cfa_offset 20
	.cfi_offset 3, -20
	subl	$28, %esp	#,
	.cfi_def_cfa_offset 48
	.loc 16 295 0
	movl	48(%esp), %esi	# hashlin, hashlin
.LVL958:
	movl	60(%esp), %edi	# hash, hash
.LVL959:
.LBB1021:
.LBB1022:
	.loc 16 96 0
	movl	156(%esi), %eax	# hashlin_7(D)->state,
	testl	%eax, %eax	#
	je	.L703	#,
	.loc 16 98 0
	movl	148(%esi), %eax	# hashlin_7(D)->low_mask, pos
	andl	%edi, %eax	# hash, pos
.LVL960:
	.loc 16 101 0
	cmpl	152(%esi), %eax	# hashlin_7(D)->split, pos
	jb	.L703	#,
.LVL961:
.LBB1023:
.LBB1024:
	.loc 16 75 0
	cmpl	$63, %eax	#, pos
	ja	.L706	#,
.L745:
	.loc 16 76 0
	movl	(%esi), %ecx	# hashlin_7(D)->bucket, hashlin_7(D)->bucket
	leal	(%ecx,%eax,4), %ebp	#, D.6403
.LVL962:
.L705:
.LBE1024:
.LBE1023:
.LBE1022:
.LBE1021:
	.loc 16 297 0
	movl	0(%ebp), %ebx	# *_48, i
.LVL963:
	.loc 16 299 0
	testl	%ebx, %ebx	# i
	je	.L728	#,
	movl	%ebp, (%esp)	# D.6403, %sfp
	movl	%esi, 48(%esp)	# hashlin, hashlin
.LVL964:
	movl	%edi, %ebp	# hash, hash
	movl	%ebx, %esi	# i, i
.LVL965:
	movl	52(%esp), %edi	# cmp, cmp
.LVL966:
	movl	56(%esp), %ebx	# cmp_arg, cmp_arg
.LVL967:
	jmp	.L731	#
.LVL968:
	.p2align 4,,10
	.p2align 3
.L709:
	.loc 16 310 0
	movl	(%esi), %esi	# i_164->next, i
.LVL969:
	.loc 16 299 0
	testl	%esi, %esi	# i
	je	.L728	#,
.L731:
	.loc 16 301 0
	cmpl	%ebp, 12(%esi)	# hash, i_164->key
	jne	.L709	#,
	.loc 16 301 0 is_stmt 0 discriminator 1
	subl	$8, %esp	#,
	.cfi_def_cfa_offset 56
	pushl	8(%esi)	# i_164->data
	.cfi_def_cfa_offset 60
	pushl	%ebx	# cmp_arg
	.cfi_def_cfa_offset 64
	call	*%edi	# cmp
.LVL970:
	addl	$16, %esp	#,
	.cfi_def_cfa_offset 48
	testl	%eax, %eax	# D.6400
	jne	.L709	#,
	movl	%esi, %ebx	# i, i
	movl	(%esp), %ebp	# %sfp, D.6403
.LVL971:
	movl	48(%esp), %esi	# hashlin, hashlin
.LVL972:
.LBB1032:
.LBB1033:
	.loc 2 267 0 is_stmt 1
	movl	(%ebx), %eax	# MEM[(struct tommy_node *)i_156].next, D.6402
	.loc 2 268 0
	movl	4(%ebx), %ecx	# MEM[(struct tommy_node *)i_156].prev, D.6402
	movl	0(%ebp), %edx	# MEM[(struct tommy_node * *)_48], D.6401
.LVL973:
	.loc 2 267 0
	testl	%eax, %eax	# D.6402
	je	.L710	#,
	.loc 2 268 0
	movl	%ecx, 4(%eax)	# D.6402, _25->prev
.L711:
	.loc 2 274 0
	cmpl	%ebx, %edx	# i, D.6401
	je	.L742	#,
	.loc 2 277 0
	movl	4(%ebx), %edx	# MEM[(struct tommy_node *)i_156].prev, MEM[(struct tommy_node *)i_156].prev
	movl	%eax, (%edx)	# D.6402, _28->next
.L713:
.LBE1033:
.LBE1032:
	.loc 16 304 0
	movl	160(%esi), %eax	# hashlin_7(D)->count, tmp219
.LBB1035:
.LBB1036:
	.loc 16 204 0
	movl	156(%esi), %ecx	# hashlin_7(D)->state, D.6399
.LBE1036:
.LBE1035:
	.loc 16 304 0
	leal	-1(%eax), %edx	#, D.6399
.LBB1060:
.LBB1057:
	.loc 16 204 0
	cmpl	$2, %ecx	#, D.6399
.LBE1057:
.LBE1060:
	.loc 16 304 0
	movl	%edx, 160(%esi)	# D.6399, hashlin_7(D)->count
.LVL974:
.LBB1061:
.LBB1058:
	.loc 16 204 0
	je	.L714	#,
	.loc 16 205 0
	movl	132(%esi), %eax	# hashlin_7(D)->bucket_max, D.6399
	movl	%eax, %edi	# D.6399, D.6399
	shrl	$3, %edi	#, D.6399
	cmpl	%edi, %edx	# D.6399, D.6399
	jae	.L716	#,
	.loc 16 208 0
	cmpl	$6, 128(%esi)	#, hashlin_7(D)->bucket_bit
	jbe	.L716	#,
	.loc 16 212 0
	testl	%ecx, %ecx	# D.6399
	jne	.L743	#,
	.loc 16 215 0
	movl	136(%esi), %ecx	# hashlin_7(D)->bucket_mask, D.6399
	.loc 16 214 0
	shrl	%eax	# D.6399
	movl	%eax, 144(%esi)	# D.6399, hashlin_7(D)->low_max
	.loc 16 218 0
	movl	%eax, 152(%esi)	# D.6399, hashlin_7(D)->split
	movl	%eax, 4(%esp)	# D.6399, %sfp
	.loc 16 215 0
	shrl	%ecx	# D.6399
	movl	%ecx, 148(%esi)	# D.6399, hashlin_7(D)->low_mask
.L719:
	.loc 16 222 0
	movl	$2, 156(%esi)	#, hashlin_7(D)->state
.L720:
.LVL975:
.LBB1037:
.LBB1038:
	.loc 16 229 0
	sall	$3, %edx	#, split_target
	leal	-4(,%eax,4), %ebp	#, ivtmp.446
	movl	%ebx, 12(%esp)	# i, %sfp
	movl	%edx, 8(%esp)	# split_target, %sfp
.LVL976:
	.p2align 4,,10
	.p2align 3
.L725:
	movl	4(%esp), %edx	# %sfp, D.6399
	addl	%eax, %edx	# D.6399, D.6399
	.loc 16 232 0
	cmpl	%edx, 8(%esp)	# D.6399, %sfp
	jae	.L744	#,
.LBB1039:
	.loc 16 236 0
	subl	$1, %eax	#, D.6399
.LBB1040:
.LBB1041:
	.loc 16 75 0
	cmpl	$63, %eax	#, D.6399
.LBE1041:
.LBE1040:
	.loc 16 236 0
	movl	%eax, 152(%esi)	# D.6399, hashlin_7(D)->split
.LVL977:
.LBB1048:
.LBB1046:
	.loc 16 75 0
	ja	.L721	#,
	.loc 16 76 0
	movl	(%esi), %edi	# hashlin_7(D)->bucket, D.6403
	addl	%ebp, %edi	# ivtmp.446, D.6403
.L722:
.LVL978:
.LBE1046:
.LBE1048:
	.loc 16 244 0
	movl	140(%esi), %edx	# hashlin_7(D)->bucket_mac, tmp226
	subl	$1, %edx	#, D.6399
.LVL979:
	movl	(%esi,%edx,4), %ecx	# hashlin_7(D)->bucket, tmp198
	movl	(%ecx,%ebp), %ecx	# MEM[(struct tommy_node * *)_93], D.6401
.LVL980:
.LBB1049:
.LBB1050:
	.loc 3 37 0
	testl	%ecx, %ecx	# D.6401
	je	.L723	#,
	movl	(%edi), %ebx	# MEM[(struct tommy_node * *)_95], D.6401
.LVL981:
	.loc 3 41 0
	testl	%ebx, %ebx	# D.6401
	je	.L739	#,
.LVL982:
.LBB1051:
.LBB1052:
	.loc 2 144 0
	movl	4(%ebx), %edi	# _96->prev, D.6404
.LVL983:
	movl	%edi, (%esp)	# D.6404, %sfp
.LBE1052:
.LBE1051:
	.loc 3 51 0
	movl	4(%ecx), %edi	# _94->prev, tmp227
	movl	%edi, 4(%ebx)	# tmp227, _96->prev
.LVL984:
	.loc 3 52 0
	movl	(%esp), %edi	# %sfp, D.6404
	movl	%edi, 4(%ecx)	# D.6404, _94->prev
.L739:
	.loc 3 55 0
	movl	%ecx, (%edi)	# D.6401,* D.6404
.L723:
	subl	$4, %ebp	#, ivtmp.446
.LBE1050:
.LBE1049:
	.loc 16 250 0
	testl	%eax, %eax	# D.6399
	jne	.L725	#,
	.loc 16 254 0
	movl	128(%esi), %eax	# hashlin_7(D)->bucket_bit, tmp228
.LVL985:
	movl	12(%esp), %ebx	# %sfp, i
	.loc 16 260 0
	subl	$12, %esp	#,
	.cfi_def_cfa_offset 60
	.loc 16 251 0
	movl	$0, 156(%esi)	#, hashlin_7(D)->state
	.loc 16 259 0
	movl	%edx, 140(%esi)	# D.6399, hashlin_7(D)->bucket_mac
	.loc 16 254 0
	leal	-1(%eax), %ecx	#, D.6399
	.loc 16 255 0
	movl	$1, %eax	#, tmp200
	sall	%cl, %eax	# D.6399, D.6399
	.loc 16 254 0
	movl	%ecx, 128(%esi)	# D.6399, hashlin_7(D)->bucket_bit
	.loc 16 255 0
	movl	%eax, 132(%esi)	# D.6399, hashlin_7(D)->bucket_max
	.loc 16 256 0
	subl	$1, %eax	#, tmp201
	movl	%eax, 136(%esi)	# tmp201, hashlin_7(D)->bucket_mask
	.loc 16 260 0
	pushl	(%esi,%edx,4)	# hashlin_7(D)->bucket
	.cfi_def_cfa_offset 64
	call	free	#
.LVL986:
	addl	$16, %esp	#,
	.cfi_def_cfa_offset 48
.LVL987:
.L716:
.LBE1039:
.LBE1038:
.LBE1037:
.LBE1058:
.LBE1061:
	.loc 16 308 0
	movl	8(%ebx), %eax	# i_156->data, D.6398
	.loc 16 314 0
	addl	$28, %esp	#,
	.cfi_remember_state
	.cfi_def_cfa_offset 20
	popl	%ebx	#
	.cfi_restore 3
	.cfi_def_cfa_offset 16
	popl	%esi	#
	.cfi_restore 6
	.cfi_def_cfa_offset 12
.LVL988:
	popl	%edi	#
	.cfi_restore 7
	.cfi_def_cfa_offset 8
	popl	%ebp	#
	.cfi_restore 5
	.cfi_def_cfa_offset 4
	ret
.LVL989:
	.p2align 4,,10
	.p2align 3
.L703:
	.cfi_restore_state
.LBB1062:
.LBB1031:
	.loc 16 109 0
	movl	136(%esi), %eax	# hashlin_7(D)->bucket_mask, pos
	andl	%edi, %eax	# hash, pos
.LVL990:
.LBB1030:
.LBB1029:
	.loc 16 75 0
	cmpl	$63, %eax	#, pos
	jbe	.L745	#,
.L706:
.LVL991:
.LBB1025:
.LBB1026:
.LBB1027:
.LBB1028:
	.loc 6 316 0
	bsrl	%eax, %ecx	# pos, D.6400
.LVL992:
.LBE1028:
.LBE1027:
	.loc 16 83 0
	movl	$1, %ebx	#, tmp179
	sall	%cl, %ebx	# D.6400, D.6400
	.loc 16 85 0
	movl	-20(%esi,%ecx,4), %ecx	# hashlin_7(D)->bucket, tmp182
.LVL993:
	.loc 16 83 0
	subl	%ebx, %eax	# D.6400, pos
.LVL994:
	.loc 16 85 0
	leal	(%ecx,%eax,4), %ebp	#, D.6403
	jmp	.L705	#
.LVL995:
	.p2align 4,,10
	.p2align 3
.L728:
.LBE1026:
.LBE1025:
.LBE1029:
.LBE1030:
.LBE1031:
.LBE1062:
	.loc 16 314 0
	addl	$28, %esp	#,
	.cfi_remember_state
	.cfi_def_cfa_offset 20
	.loc 16 313 0
	xorl	%eax, %eax	# D.6398
	.loc 16 314 0
	popl	%ebx	#
	.cfi_restore 3
	.cfi_def_cfa_offset 16
	popl	%esi	#
	.cfi_restore 6
	.cfi_def_cfa_offset 12
	popl	%edi	#
	.cfi_restore 7
	.cfi_def_cfa_offset 8
	popl	%ebp	#
	.cfi_restore 5
	.cfi_def_cfa_offset 4
	ret
.LVL996:
	.p2align 4,,10
	.p2align 3
.L721:
	.cfi_restore_state
.LBB1063:
.LBB1059:
.LBB1056:
.LBB1055:
.LBB1054:
.LBB1053:
.LBB1047:
.LBB1042:
.LBB1043:
.LBB1044:
.LBB1045:
	.loc 6 316 0
	bsrl	%eax, %ecx	# D.6399, D.6400
.LVL997:
.LBE1045:
.LBE1044:
	.loc 16 83 0
	movl	$1, %edx	#, D.6400
	movl	%eax, %edi	# D.6399, pos
	sall	%cl, %edx	# D.6400, D.6400
	.loc 16 85 0
	movl	-20(%esi,%ecx,4), %ecx	# hashlin_7(D)->bucket, tmp196
.LVL998:
	.loc 16 83 0
	subl	%edx, %edi	# D.6400, pos
	.loc 16 85 0
	leal	(%ecx,%edi,4), %edi	#, D.6403
	jmp	.L722	#
.LVL999:
.L714:
	movl	144(%esi), %eax	# hashlin_7(D)->low_max, D.6399
	movl	%eax, 4(%esp)	# D.6399, %sfp
	movl	152(%esi), %eax	# hashlin_7(D)->split, D.6399
	jmp	.L720	#
.LVL1000:
.L744:
	movl	12(%esp), %ebx	# %sfp, i
	jmp	.L716	#
.LVL1001:
.L742:
.LBE1043:
.LBE1042:
.LBE1047:
.LBE1053:
.LBE1054:
.LBE1055:
.LBE1056:
.LBE1059:
.LBE1063:
.LBB1064:
.LBB1034:
	.loc 2 275 0
	movl	%eax, 0(%ebp)	# D.6402, MEM[(struct tommy_node * *)_48]
	jmp	.L713	#
.L710:
	.loc 2 270 0
	movl	%ecx, 4(%edx)	# D.6402, _24->prev
	jmp	.L711	#
.LVL1002:
.L743:
	movl	144(%esi), %eax	# hashlin_7(D)->low_max, D.6399
	movl	%eax, 4(%esp)	# D.6399, %sfp
	movl	152(%esi), %eax	# hashlin_7(D)->split, D.6399
	jmp	.L719	#
.LBE1034:
.LBE1064:
	.cfi_endproc
.LFE142:
	.size	tommy_hashlin_remove, .-tommy_hashlin_remove
	.section	.text.unlikely
.LCOLDE63:
	.text
.LHOTE63:
	.section	.text.unlikely
.LCOLDB64:
	.text
.LHOTB64:
	.p2align 4,,15
	.globl	tommy_hashlin_memory_usage
	.type	tommy_hashlin_memory_usage, @function
tommy_hashlin_memory_usage:
.LFB143:
	.loc 16 317 0
	.cfi_startproc
.LVL1003:
	.loc 16 317 0
	movl	4(%esp), %eax	# hashlin, hashlin
	.loc 16 319 0
	movl	160(%eax), %edx	# hashlin_2(D)->count, hashlin_2(D)->count
	movl	132(%eax), %eax	# hashlin_2(D)->bucket_max, hashlin_2(D)->bucket_max
	leal	(%eax,%edx,4), %eax	#, D.6407
	.loc 16 318 0
	sall	$2, %eax	#, D.6408
	.loc 16 320 0
	ret
	.cfi_endproc
.LFE143:
	.size	tommy_hashlin_memory_usage, .-tommy_hashlin_memory_usage
	.section	.text.unlikely
.LCOLDE64:
	.text
.LHOTE64:
	.section	.rodata
	.align 32
	.type	__PRETTY_FUNCTION__.3503, @object
	.size	__PRETTY_FUNCTION__.3503, 35
__PRETTY_FUNCTION__.3503:
	.string	"tommy_trie_inplace_remove_existing"
	.type	__PRETTY_FUNCTION__.3361, @object
	.size	__PRETTY_FUNCTION__.3361, 27
__PRETTY_FUNCTION__.3361:
	.string	"tommy_trie_remove_existing"
	.type	__PRETTY_FUNCTION__.3347, @object
	.size	__PRETTY_FUNCTION__.3347, 28
__PRETTY_FUNCTION__.3347:
	.string	"trie_bucket_remove_existing"
	.type	__PRETTY_FUNCTION__.2532, @object
	.size	__PRETTY_FUNCTION__.2532, 16
__PRETTY_FUNCTION__.2532:
	.string	"tommy_array_ref"
	.text
.Letext0:
	.section	.text.unlikely
.Letext_cold0:
	.file 17 "/usr/include/stdint.h"
	.file 18 "/usr/lib/gcc/x86_64-unknown-linux-gnu/4.9.0/include/stddef.h"
	.file 19 "tommyhash.h"
	.file 20 "tommyalloc.h"
	.file 21 "tommyarrayof.h"
	.file 22 "tommyarrayblk.h"
	.file 23 "tommyarrayblkof.h"
	.file 24 "tommytrie.h"
	.file 25 "tommytrieinp.h"
	.file 26 "tommyhashtbl.h"
	.file 27 "tommyhashdyn.h"
	.file 28 "tommyhashlin.h"
	.file 29 "/usr/include/stdlib.h"
	.file 30 "/usr/include/assert.h"
	.section	.note.GNU-stack,"",@progbits
